
build/Placement-Management-System:     file format elf64-x86-64


Disassembly of section .init:

0000000000017000 <_init>:
   17000:	f3 0f 1e fa          	endbr64 
   17004:	48 83 ec 08          	sub    $0x8,%rsp
   17008:	48 8b 05 d9 9f 02 00 	mov    0x29fd9(%rip),%rax        # 40fe8 <__gmon_start__>
   1700f:	48 85 c0             	test   %rax,%rax
   17012:	74 02                	je     17016 <_init+0x16>
   17014:	ff d0                	call   *%rax
   17016:	48 83 c4 08          	add    $0x8,%rsp
   1701a:	c3                   	ret    

Disassembly of section .plt:

0000000000017020 <_ZNKSt7__cxx1112basic_stringIcSt11char_traitsIcESaIcEE8capacityEv@plt-0x10>:
   17020:	ff 35 e2 9f 02 00    	push   0x29fe2(%rip)        # 41008 <_GLOBAL_OFFSET_TABLE_+0x8>
   17026:	ff 25 e4 9f 02 00    	jmp    *0x29fe4(%rip)        # 41010 <_GLOBAL_OFFSET_TABLE_+0x10>
   1702c:	0f 1f 40 00          	nopl   0x0(%rax)

0000000000017030 <_ZNKSt7__cxx1112basic_stringIcSt11char_traitsIcESaIcEE8capacityEv@plt>:
   17030:	ff 25 e2 9f 02 00    	jmp    *0x29fe2(%rip)        # 41018 <_ZNKSt7__cxx1112basic_stringIcSt11char_traitsIcESaIcEE8capacityEv@GLIBCXX_3.4.21>
   17036:	68 00 00 00 00       	push   $0x0
   1703b:	e9 e0 ff ff ff       	jmp    17020 <_init+0x20>

0000000000017040 <_ZNKSt7__cxx1112basic_stringIcSt11char_traitsIcESaIcEE7compareERKS4_@plt>:
   17040:	ff 25 da 9f 02 00    	jmp    *0x29fda(%rip)        # 41020 <_ZNKSt7__cxx1112basic_stringIcSt11char_traitsIcESaIcEE7compareERKS4_@GLIBCXX_3.4.21>
   17046:	68 01 00 00 00       	push   $0x1
   1704b:	e9 d0 ff ff ff       	jmp    17020 <_init+0x20>

0000000000017050 <_ZNSt7__cxx1112basic_stringIcSt11char_traitsIcESaIcEEaSERKS4_@plt>:
   17050:	ff 25 d2 9f 02 00    	jmp    *0x29fd2(%rip)        # 41028 <_ZNSt7__cxx1112basic_stringIcSt11char_traitsIcESaIcEEaSERKS4_@GLIBCXX_3.4.21>
   17056:	68 02 00 00 00       	push   $0x2
   1705b:	e9 c0 ff ff ff       	jmp    17020 <_init+0x20>

0000000000017060 <__errno_location@plt>:
   17060:	ff 25 ca 9f 02 00    	jmp    *0x29fca(%rip)        # 41030 <__errno_location@GLIBC_2.2.5>
   17066:	68 03 00 00 00       	push   $0x3
   1706b:	e9 b0 ff ff ff       	jmp    17020 <_init+0x20>

0000000000017070 <printf@plt>:
   17070:	ff 25 c2 9f 02 00    	jmp    *0x29fc2(%rip)        # 41038 <printf@GLIBC_2.2.5>
   17076:	68 04 00 00 00       	push   $0x4
   1707b:	e9 a0 ff ff ff       	jmp    17020 <_init+0x20>

0000000000017080 <_ZNSt7__cxx1112basic_stringIcSt11char_traitsIcESaIcEE6appendEPKcm@plt>:
   17080:	ff 25 ba 9f 02 00    	jmp    *0x29fba(%rip)        # 41040 <_ZNSt7__cxx1112basic_stringIcSt11char_traitsIcESaIcEE6appendEPKcm@GLIBCXX_3.4.21>
   17086:	68 05 00 00 00       	push   $0x5
   1708b:	e9 90 ff ff ff       	jmp    17020 <_init+0x20>

0000000000017090 <_ZSt29_Rb_tree_insert_and_rebalancebPSt18_Rb_tree_node_baseS0_RS_@plt>:
   17090:	ff 25 b2 9f 02 00    	jmp    *0x29fb2(%rip)        # 41048 <_ZSt29_Rb_tree_insert_and_rebalancebPSt18_Rb_tree_node_baseS0_RS_@GLIBCXX_3.4>
   17096:	68 06 00 00 00       	push   $0x6
   1709b:	e9 80 ff ff ff       	jmp    17020 <_init+0x20>

00000000000170a0 <_ZNSaIcED2Ev@plt>:
   170a0:	ff 25 aa 9f 02 00    	jmp    *0x29faa(%rip)        # 41050 <_ZNSaIcED2Ev@GLIBCXX_3.4>
   170a6:	68 07 00 00 00       	push   $0x7
   170ab:	e9 70 ff ff ff       	jmp    17020 <_init+0x20>

00000000000170b0 <_ZNSirsERf@plt>:
   170b0:	ff 25 a2 9f 02 00    	jmp    *0x29fa2(%rip)        # 41058 <_ZNSirsERf@GLIBCXX_3.4>
   170b6:	68 08 00 00 00       	push   $0x8
   170bb:	e9 60 ff ff ff       	jmp    17020 <_init+0x20>

00000000000170c0 <_ZNSt7__cxx1112basic_stringIcSt11char_traitsIcESaIcEE6insertEmPKc@plt>:
   170c0:	ff 25 9a 9f 02 00    	jmp    *0x29f9a(%rip)        # 41060 <_ZNSt7__cxx1112basic_stringIcSt11char_traitsIcESaIcEE6insertEmPKc@GLIBCXX_3.4.21>
   170c6:	68 09 00 00 00       	push   $0x9
   170cb:	e9 50 ff ff ff       	jmp    17020 <_init+0x20>

00000000000170d0 <_ZNKSt7__cxx1112basic_stringIcSt11char_traitsIcESaIcEE7compareEPKc@plt>:
   170d0:	ff 25 92 9f 02 00    	jmp    *0x29f92(%rip)        # 41068 <_ZNKSt7__cxx1112basic_stringIcSt11char_traitsIcESaIcEE7compareEPKc@GLIBCXX_3.4.21>
   170d6:	68 0a 00 00 00       	push   $0xa
   170db:	e9 40 ff ff ff       	jmp    17020 <_init+0x20>

00000000000170e0 <_ZNSt7__cxx1112basic_stringIcSt11char_traitsIcESaIcEE13_S_copy_charsEPcS5_S5_@plt>:
   170e0:	ff 25 8a 9f 02 00    	jmp    *0x29f8a(%rip)        # 41070 <_ZNSt7__cxx1112basic_stringIcSt11char_traitsIcESaIcEE13_S_copy_charsEPcS5_S5_@GLIBCXX_3.4.21>
   170e6:	68 0b 00 00 00       	push   $0xb
   170eb:	e9 30 ff ff ff       	jmp    17020 <_init+0x20>

00000000000170f0 <_ZSt17__throw_bad_allocv@plt>:
   170f0:	ff 25 82 9f 02 00    	jmp    *0x29f82(%rip)        # 41078 <_ZSt17__throw_bad_allocv@GLIBCXX_3.4>
   170f6:	68 0c 00 00 00       	push   $0xc
   170fb:	e9 20 ff ff ff       	jmp    17020 <_init+0x20>

0000000000017100 <_ZNKSt7__cxx1112basic_stringIcSt11char_traitsIcESaIcEE13get_allocatorEv@plt>:
   17100:	ff 25 7a 9f 02 00    	jmp    *0x29f7a(%rip)        # 41080 <_ZNKSt7__cxx1112basic_stringIcSt11char_traitsIcESaIcEE13get_allocatorEv@GLIBCXX_3.4.21>
   17106:	68 0d 00 00 00       	push   $0xd
   1710b:	e9 10 ff ff ff       	jmp    17020 <_init+0x20>

0000000000017110 <__cxa_begin_catch@plt>:
   17110:	ff 25 72 9f 02 00    	jmp    *0x29f72(%rip)        # 41088 <__cxa_begin_catch@CXXABI_1.3>
   17116:	68 0e 00 00 00       	push   $0xe
   1711b:	e9 00 ff ff ff       	jmp    17020 <_init+0x20>

0000000000017120 <_ZNKSt7__cxx1112basic_stringIcSt11char_traitsIcESaIcEE5c_strEv@plt>:
   17120:	ff 25 6a 9f 02 00    	jmp    *0x29f6a(%rip)        # 41090 <_ZNKSt7__cxx1112basic_stringIcSt11char_traitsIcESaIcEE5c_strEv@GLIBCXX_3.4.21>
   17126:	68 0f 00 00 00       	push   $0xf
   1712b:	e9 f0 fe ff ff       	jmp    17020 <_init+0x20>

0000000000017130 <_ZNSt7__cxx1112basic_stringIcSt11char_traitsIcESaIcEEC1ERKS4_@plt>:
   17130:	ff 25 62 9f 02 00    	jmp    *0x29f62(%rip)        # 41098 <_ZNSt7__cxx1112basic_stringIcSt11char_traitsIcESaIcEEC1ERKS4_@GLIBCXX_3.4.21>
   17136:	68 10 00 00 00       	push   $0x10
   1713b:	e9 e0 fe ff ff       	jmp    17020 <_init+0x20>

0000000000017140 <strlen@plt>:
   17140:	ff 25 5a 9f 02 00    	jmp    *0x29f5a(%rip)        # 410a0 <strlen@GLIBC_2.2.5>
   17146:	68 11 00 00 00       	push   $0x11
   1714b:	e9 d0 fe ff ff       	jmp    17020 <_init+0x20>

0000000000017150 <memcmp@plt>:
   17150:	ff 25 52 9f 02 00    	jmp    *0x29f52(%rip)        # 410a8 <memcmp@GLIBC_2.2.5>
   17156:	68 12 00 00 00       	push   $0x12
   1715b:	e9 c0 fe ff ff       	jmp    17020 <_init+0x20>

0000000000017160 <__cxa_allocate_exception@plt>:
   17160:	ff 25 4a 9f 02 00    	jmp    *0x29f4a(%rip)        # 410b0 <__cxa_allocate_exception@CXXABI_1.3>
   17166:	68 13 00 00 00       	push   $0x13
   1716b:	e9 b0 fe ff ff       	jmp    17020 <_init+0x20>

0000000000017170 <sqlite3_close@plt>:
   17170:	ff 25 42 9f 02 00    	jmp    *0x29f42(%rip)        # 410b8 <sqlite3_close>
   17176:	68 14 00 00 00       	push   $0x14
   1717b:	e9 a0 fe ff ff       	jmp    17020 <_init+0x20>

0000000000017180 <_ZSt20__throw_length_errorPKc@plt>:
   17180:	ff 25 3a 9f 02 00    	jmp    *0x29f3a(%rip)        # 410c0 <_ZSt20__throw_length_errorPKc@GLIBCXX_3.4>
   17186:	68 15 00 00 00       	push   $0x15
   1718b:	e9 90 fe ff ff       	jmp    17020 <_init+0x20>

0000000000017190 <_ZNSaIcEC1ERKS_@plt>:
   17190:	ff 25 32 9f 02 00    	jmp    *0x29f32(%rip)        # 410c8 <_ZNSaIcEC1ERKS_@GLIBCXX_3.4>
   17196:	68 16 00 00 00       	push   $0x16
   1719b:	e9 80 fe ff ff       	jmp    17020 <_init+0x20>

00000000000171a0 <_ZNSt7__cxx1112basic_stringIcSt11char_traitsIcESaIcEEC1EOS4_@plt>:
   171a0:	ff 25 2a 9f 02 00    	jmp    *0x29f2a(%rip)        # 410d0 <_ZNSt7__cxx1112basic_stringIcSt11char_traitsIcESaIcEEC1EOS4_@GLIBCXX_3.4.21>
   171a6:	68 17 00 00 00       	push   $0x17
   171ab:	e9 70 fe ff ff       	jmp    17020 <_init+0x20>

00000000000171b0 <_ZSt24__throw_invalid_argumentPKc@plt>:
   171b0:	ff 25 22 9f 02 00    	jmp    *0x29f22(%rip)        # 410d8 <_ZSt24__throw_invalid_argumentPKc@GLIBCXX_3.4>
   171b6:	68 18 00 00 00       	push   $0x18
   171bb:	e9 60 fe ff ff       	jmp    17020 <_init+0x20>

00000000000171c0 <_ZNSirsERi@plt>:
   171c0:	ff 25 1a 9f 02 00    	jmp    *0x29f1a(%rip)        # 410e0 <_ZNSirsERi@GLIBCXX_3.4>
   171c6:	68 19 00 00 00       	push   $0x19
   171cb:	e9 50 fe ff ff       	jmp    17020 <_init+0x20>

00000000000171d0 <_ZNSt7__cxx1112basic_stringIcSt11char_traitsIcESaIcEE13_M_set_lengthEm@plt>:
   171d0:	ff 25 12 9f 02 00    	jmp    *0x29f12(%rip)        # 410e8 <_ZNSt7__cxx1112basic_stringIcSt11char_traitsIcESaIcEE13_M_set_lengthEm@GLIBCXX_3.4.21>
   171d6:	68 1a 00 00 00       	push   $0x1a
   171db:	e9 40 fe ff ff       	jmp    17020 <_init+0x20>

00000000000171e0 <_ZSt18_Rb_tree_incrementPSt18_Rb_tree_node_base@plt>:
   171e0:	ff 25 0a 9f 02 00    	jmp    *0x29f0a(%rip)        # 410f0 <_ZSt18_Rb_tree_incrementPSt18_Rb_tree_node_base@GLIBCXX_3.4>
   171e6:	68 1b 00 00 00       	push   $0x1b
   171eb:	e9 30 fe ff ff       	jmp    17020 <_init+0x20>

00000000000171f0 <_ZNKSt7__cxx1112basic_stringIcSt11char_traitsIcESaIcEE4sizeEv@plt>:
   171f0:	ff 25 02 9f 02 00    	jmp    *0x29f02(%rip)        # 410f8 <_ZNKSt7__cxx1112basic_stringIcSt11char_traitsIcESaIcEE4sizeEv@GLIBCXX_3.4.21>
   171f6:	68 1c 00 00 00       	push   $0x1c
   171fb:	e9 20 fe ff ff       	jmp    17020 <_init+0x20>

0000000000017200 <_ZSt19__throw_logic_errorPKc@plt>:
   17200:	ff 25 fa 9e 02 00    	jmp    *0x29efa(%rip)        # 41100 <_ZSt19__throw_logic_errorPKc@GLIBCXX_3.4>
   17206:	68 1d 00 00 00       	push   $0x1d
   1720b:	e9 10 fe ff ff       	jmp    17020 <_init+0x20>

0000000000017210 <__cxa_free_exception@plt>:
   17210:	ff 25 f2 9e 02 00    	jmp    *0x29ef2(%rip)        # 41108 <__cxa_free_exception@CXXABI_1.3>
   17216:	68 1e 00 00 00       	push   $0x1e
   1721b:	e9 00 fe ff ff       	jmp    17020 <_init+0x20>

0000000000017220 <_ZNSolsEf@plt>:
   17220:	ff 25 ea 9e 02 00    	jmp    *0x29eea(%rip)        # 41110 <_ZNSolsEf@GLIBCXX_3.4>
   17226:	68 1f 00 00 00       	push   $0x1f
   1722b:	e9 f0 fd ff ff       	jmp    17020 <_init+0x20>

0000000000017230 <_ZSt28__throw_bad_array_new_lengthv@plt>:
   17230:	ff 25 e2 9e 02 00    	jmp    *0x29ee2(%rip)        # 41118 <_ZSt28__throw_bad_array_new_lengthv@GLIBCXX_3.4.29>
   17236:	68 20 00 00 00       	push   $0x20
   1723b:	e9 e0 fd ff ff       	jmp    17020 <_init+0x20>

0000000000017240 <_ZNSt7__cxx1112basic_stringIcSt11char_traitsIcESaIcEE13_M_local_dataEv@plt>:
   17240:	ff 25 da 9e 02 00    	jmp    *0x29eda(%rip)        # 41120 <_ZNSt7__cxx1112basic_stringIcSt11char_traitsIcESaIcEE13_M_local_dataEv@GLIBCXX_3.4.21>
   17246:	68 21 00 00 00       	push   $0x21
   1724b:	e9 d0 fd ff ff       	jmp    17020 <_init+0x20>

0000000000017250 <_ZNSirsERd@plt>:
   17250:	ff 25 d2 9e 02 00    	jmp    *0x29ed2(%rip)        # 41128 <_ZNSirsERd@GLIBCXX_3.4>
   17256:	68 22 00 00 00       	push   $0x22
   1725b:	e9 c0 fd ff ff       	jmp    17020 <_init+0x20>

0000000000017260 <_ZNSt7__cxx1112basic_stringIcSt11char_traitsIcESaIcEE7_M_dataEPc@plt>:
   17260:	ff 25 ca 9e 02 00    	jmp    *0x29eca(%rip)        # 41130 <_ZNSt7__cxx1112basic_stringIcSt11char_traitsIcESaIcEE7_M_dataEPc@GLIBCXX_3.4.21>
   17266:	68 23 00 00 00       	push   $0x23
   1726b:	e9 b0 fd ff ff       	jmp    17020 <_init+0x20>

0000000000017270 <__cxa_atexit@plt>:
   17270:	ff 25 c2 9e 02 00    	jmp    *0x29ec2(%rip)        # 41138 <__cxa_atexit@GLIBC_2.2.5>
   17276:	68 24 00 00 00       	push   $0x24
   1727b:	e9 a0 fd ff ff       	jmp    17020 <_init+0x20>

0000000000017280 <_ZStlsIcSt11char_traitsIcESaIcEERSt13basic_ostreamIT_T0_ES7_RKNSt7__cxx1112basic_stringIS4_S5_T1_EE@plt>:
   17280:	ff 25 ba 9e 02 00    	jmp    *0x29eba(%rip)        # 41140 <_ZStlsIcSt11char_traitsIcESaIcEERSt13basic_ostreamIT_T0_ES7_RKNSt7__cxx1112basic_stringIS4_S5_T1_EE@GLIBCXX_3.4.21>
   17286:	68 25 00 00 00       	push   $0x25
   1728b:	e9 90 fd ff ff       	jmp    17020 <_init+0x20>

0000000000017290 <sqlite3_errmsg@plt>:
   17290:	ff 25 b2 9e 02 00    	jmp    *0x29eb2(%rip)        # 41148 <sqlite3_errmsg>
   17296:	68 26 00 00 00       	push   $0x26
   1729b:	e9 80 fd ff ff       	jmp    17020 <_init+0x20>

00000000000172a0 <_ZStlsISt11char_traitsIcEERSt13basic_ostreamIcT_ES5_PKc@plt>:
   172a0:	ff 25 aa 9e 02 00    	jmp    *0x29eaa(%rip)        # 41150 <_ZStlsISt11char_traitsIcEERSt13basic_ostreamIcT_ES5_PKc@GLIBCXX_3.4>
   172a6:	68 27 00 00 00       	push   $0x27
   172ab:	e9 70 fd ff ff       	jmp    17020 <_init+0x20>

00000000000172b0 <_Znwm@plt>:
   172b0:	ff 25 a2 9e 02 00    	jmp    *0x29ea2(%rip)        # 41158 <_Znwm@GLIBCXX_3.4>
   172b6:	68 28 00 00 00       	push   $0x28
   172bb:	e9 60 fd ff ff       	jmp    17020 <_init+0x20>

00000000000172c0 <_ZdlPvm@plt>:
   172c0:	ff 25 9a 9e 02 00    	jmp    *0x29e9a(%rip)        # 41160 <_ZdlPvm@CXXABI_1.3.9>
   172c6:	68 29 00 00 00       	push   $0x29
   172cb:	e9 50 fd ff ff       	jmp    17020 <_init+0x20>

00000000000172d0 <_ZSt18_Rb_tree_decrementPSt18_Rb_tree_node_base@plt>:
   172d0:	ff 25 92 9e 02 00    	jmp    *0x29e92(%rip)        # 41168 <_ZSt18_Rb_tree_decrementPSt18_Rb_tree_node_base@GLIBCXX_3.4>
   172d6:	68 2a 00 00 00       	push   $0x2a
   172db:	e9 40 fd ff ff       	jmp    17020 <_init+0x20>

00000000000172e0 <_ZNSolsEPFRSoS_E@plt>:
   172e0:	ff 25 8a 9e 02 00    	jmp    *0x29e8a(%rip)        # 41170 <_ZNSolsEPFRSoS_E@GLIBCXX_3.4>
   172e6:	68 2b 00 00 00       	push   $0x2b
   172eb:	e9 30 fd ff ff       	jmp    17020 <_init+0x20>

00000000000172f0 <_ZNSt7__cxx1112basic_stringIcSt11char_traitsIcESaIcEE12_Alloc_hiderC1EPcRKS3_@plt>:
   172f0:	ff 25 82 9e 02 00    	jmp    *0x29e82(%rip)        # 41178 <_ZNSt7__cxx1112basic_stringIcSt11char_traitsIcESaIcEE12_Alloc_hiderC1EPcRKS3_@GLIBCXX_3.4.21>
   172f6:	68 2c 00 00 00       	push   $0x2c
   172fb:	e9 20 fd ff ff       	jmp    17020 <_init+0x20>

0000000000017300 <_ZNSaIcED1Ev@plt>:
   17300:	ff 25 7a 9e 02 00    	jmp    *0x29e7a(%rip)        # 41180 <_ZNSaIcED1Ev@GLIBCXX_3.4>
   17306:	68 2d 00 00 00       	push   $0x2d
   1730b:	e9 10 fd ff ff       	jmp    17020 <_init+0x20>

0000000000017310 <_ZNKSt7__cxx1112basic_stringIcSt11char_traitsIcESaIcEE7_M_dataEv@plt>:
   17310:	ff 25 72 9e 02 00    	jmp    *0x29e72(%rip)        # 41188 <_ZNKSt7__cxx1112basic_stringIcSt11char_traitsIcESaIcEE7_M_dataEv@GLIBCXX_3.4.21>
   17316:	68 2e 00 00 00       	push   $0x2e
   1731b:	e9 00 fd ff ff       	jmp    17020 <_init+0x20>

0000000000017320 <_ZNSt7__cxx1112basic_stringIcSt11char_traitsIcESaIcEE13_S_copy_charsEPcPKcS7_@plt>:
   17320:	ff 25 6a 9e 02 00    	jmp    *0x29e6a(%rip)        # 41190 <_ZNSt7__cxx1112basic_stringIcSt11char_traitsIcESaIcEE13_S_copy_charsEPcPKcS7_@GLIBCXX_3.4.21>
   17326:	68 2f 00 00 00       	push   $0x2f
   1732b:	e9 f0 fc ff ff       	jmp    17020 <_init+0x20>

0000000000017330 <__stack_chk_fail@plt>:
   17330:	ff 25 62 9e 02 00    	jmp    *0x29e62(%rip)        # 41198 <__stack_chk_fail@GLIBC_2.4>
   17336:	68 30 00 00 00       	push   $0x30
   1733b:	e9 e0 fc ff ff       	jmp    17020 <_init+0x20>

0000000000017340 <_ZSt18_Rb_tree_incrementPKSt18_Rb_tree_node_base@plt>:
   17340:	ff 25 5a 9e 02 00    	jmp    *0x29e5a(%rip)        # 411a0 <_ZSt18_Rb_tree_incrementPKSt18_Rb_tree_node_base@GLIBCXX_3.4>
   17346:	68 31 00 00 00       	push   $0x31
   1734b:	e9 d0 fc ff ff       	jmp    17020 <_init+0x20>

0000000000017350 <_ZNSt7__cxx1112basic_stringIcSt11char_traitsIcESaIcEE12_M_constructEmc@plt>:
   17350:	ff 25 52 9e 02 00    	jmp    *0x29e52(%rip)        # 411a8 <_ZNSt7__cxx1112basic_stringIcSt11char_traitsIcESaIcEE12_M_constructEmc@GLIBCXX_3.4.21>
   17356:	68 32 00 00 00       	push   $0x32
   1735b:	e9 c0 fc ff ff       	jmp    17020 <_init+0x20>

0000000000017360 <_ZStlsISt11char_traitsIcEERSt13basic_ostreamIcT_ES5_c@plt>:
   17360:	ff 25 4a 9e 02 00    	jmp    *0x29e4a(%rip)        # 411b0 <_ZStlsISt11char_traitsIcEERSt13basic_ostreamIcT_ES5_c@GLIBCXX_3.4>
   17366:	68 33 00 00 00       	push   $0x33
   1736b:	e9 b0 fc ff ff       	jmp    17020 <_init+0x20>

0000000000017370 <_ZNSt7__cxx1112basic_stringIcSt11char_traitsIcESaIcEEaSEOS4_@plt>:
   17370:	ff 25 42 9e 02 00    	jmp    *0x29e42(%rip)        # 411b8 <_ZNSt7__cxx1112basic_stringIcSt11char_traitsIcESaIcEEaSEOS4_@GLIBCXX_3.4.21>
   17376:	68 34 00 00 00       	push   $0x34
   1737b:	e9 a0 fc ff ff       	jmp    17020 <_init+0x20>

0000000000017380 <sqlite3_free@plt>:
   17380:	ff 25 3a 9e 02 00    	jmp    *0x29e3a(%rip)        # 411c0 <sqlite3_free>
   17386:	68 35 00 00 00       	push   $0x35
   1738b:	e9 90 fc ff ff       	jmp    17020 <_init+0x20>

0000000000017390 <_ZNSt7__cxx1112basic_stringIcSt11char_traitsIcESaIcEE10_M_disposeEv@plt>:
   17390:	ff 25 32 9e 02 00    	jmp    *0x29e32(%rip)        # 411c8 <_ZNSt7__cxx1112basic_stringIcSt11char_traitsIcESaIcEE10_M_disposeEv@GLIBCXX_3.4.21>
   17396:	68 36 00 00 00       	push   $0x36
   1739b:	e9 80 fc ff ff       	jmp    17020 <_init+0x20>

00000000000173a0 <atof@plt>:
   173a0:	ff 25 2a 9e 02 00    	jmp    *0x29e2a(%rip)        # 411d0 <atof@GLIBC_2.2.5>
   173a6:	68 37 00 00 00       	push   $0x37
   173ab:	e9 70 fc ff ff       	jmp    17020 <_init+0x20>

00000000000173b0 <__cxa_get_exception_ptr@plt>:
   173b0:	ff 25 22 9e 02 00    	jmp    *0x29e22(%rip)        # 411d8 <__cxa_get_exception_ptr@CXXABI_1.3.1>
   173b6:	68 38 00 00 00       	push   $0x38
   173bb:	e9 60 fc ff ff       	jmp    17020 <_init+0x20>

00000000000173c0 <_ZStrsIcSt11char_traitsIcESaIcEERSt13basic_istreamIT_T0_ES7_RNSt7__cxx1112basic_stringIS4_S5_T1_EE@plt>:
   173c0:	ff 25 1a 9e 02 00    	jmp    *0x29e1a(%rip)        # 411e0 <_ZStrsIcSt11char_traitsIcESaIcEERSt13basic_istreamIT_T0_ES7_RNSt7__cxx1112basic_stringIS4_S5_T1_EE@GLIBCXX_3.4.21>
   173c6:	68 39 00 00 00       	push   $0x39
   173cb:	e9 50 fc ff ff       	jmp    17020 <_init+0x20>

00000000000173d0 <_ZNKSt7__cxx1112basic_stringIcSt11char_traitsIcESaIcEE4dataEv@plt>:
   173d0:	ff 25 12 9e 02 00    	jmp    *0x29e12(%rip)        # 411e8 <_ZNKSt7__cxx1112basic_stringIcSt11char_traitsIcESaIcEE4dataEv@GLIBCXX_3.4.21>
   173d6:	68 3a 00 00 00       	push   $0x3a
   173db:	e9 40 fc ff ff       	jmp    17020 <_init+0x20>

00000000000173e0 <sqlite3_exec@plt>:
   173e0:	ff 25 0a 9e 02 00    	jmp    *0x29e0a(%rip)        # 411f0 <sqlite3_exec>
   173e6:	68 3b 00 00 00       	push   $0x3b
   173eb:	e9 30 fc ff ff       	jmp    17020 <_init+0x20>

00000000000173f0 <_ZNSt7__cxx1112basic_stringIcSt11char_traitsIcESaIcEEaSEPKc@plt>:
   173f0:	ff 25 02 9e 02 00    	jmp    *0x29e02(%rip)        # 411f8 <_ZNSt7__cxx1112basic_stringIcSt11char_traitsIcESaIcEEaSEPKc@GLIBCXX_3.4.21>
   173f6:	68 3c 00 00 00       	push   $0x3c
   173fb:	e9 20 fc ff ff       	jmp    17020 <_init+0x20>

0000000000017400 <_ZNSt7__cxx1112basic_stringIcSt11char_traitsIcESaIcEEC1Ev@plt>:
   17400:	ff 25 fa 9d 02 00    	jmp    *0x29dfa(%rip)        # 41200 <_ZNSt7__cxx1112basic_stringIcSt11char_traitsIcESaIcEEC1Ev@GLIBCXX_3.4.21>
   17406:	68 3d 00 00 00       	push   $0x3d
   1740b:	e9 10 fc ff ff       	jmp    17020 <_init+0x20>

0000000000017410 <putchar@plt>:
   17410:	ff 25 f2 9d 02 00    	jmp    *0x29df2(%rip)        # 41208 <putchar@GLIBC_2.2.5>
   17416:	68 3e 00 00 00       	push   $0x3e
   1741b:	e9 00 fc ff ff       	jmp    17020 <_init+0x20>

0000000000017420 <fprintf@plt>:
   17420:	ff 25 ea 9d 02 00    	jmp    *0x29dea(%rip)        # 41210 <fprintf@GLIBC_2.2.5>
   17426:	68 3f 00 00 00       	push   $0x3f
   1742b:	e9 f0 fb ff ff       	jmp    17020 <_init+0x20>

0000000000017430 <_ZSt20__throw_out_of_rangePKc@plt>:
   17430:	ff 25 e2 9d 02 00    	jmp    *0x29de2(%rip)        # 41218 <_ZSt20__throw_out_of_rangePKc@GLIBCXX_3.4>
   17436:	68 40 00 00 00       	push   $0x40
   1743b:	e9 e0 fb ff ff       	jmp    17020 <_init+0x20>

0000000000017440 <__cxa_rethrow@plt>:
   17440:	ff 25 da 9d 02 00    	jmp    *0x29dda(%rip)        # 41220 <__cxa_rethrow@CXXABI_1.3>
   17446:	68 41 00 00 00       	push   $0x41
   1744b:	e9 d0 fb ff ff       	jmp    17020 <_init+0x20>

0000000000017450 <_ZSt24__throw_out_of_range_fmtPKcz@plt>:
   17450:	ff 25 d2 9d 02 00    	jmp    *0x29dd2(%rip)        # 41228 <_ZSt24__throw_out_of_range_fmtPKcz@GLIBCXX_3.4.20>
   17456:	68 42 00 00 00       	push   $0x42
   1745b:	e9 c0 fb ff ff       	jmp    17020 <_init+0x20>

0000000000017460 <_ZNSt8ios_base4InitC1Ev@plt>:
   17460:	ff 25 ca 9d 02 00    	jmp    *0x29dca(%rip)        # 41230 <_ZNSt8ios_base4InitC1Ev@GLIBCXX_3.4>
   17466:	68 43 00 00 00       	push   $0x43
   1746b:	e9 b0 fb ff ff       	jmp    17020 <_init+0x20>

0000000000017470 <atoi@plt>:
   17470:	ff 25 c2 9d 02 00    	jmp    *0x29dc2(%rip)        # 41238 <atoi@GLIBC_2.2.5>
   17476:	68 44 00 00 00       	push   $0x44
   1747b:	e9 a0 fb ff ff       	jmp    17020 <_init+0x20>

0000000000017480 <_ZNSt7__cxx1112basic_stringIcSt11char_traitsIcESaIcEE7reserveEm@plt>:
   17480:	ff 25 ba 9d 02 00    	jmp    *0x29dba(%rip)        # 41240 <_ZNSt7__cxx1112basic_stringIcSt11char_traitsIcESaIcEE7reserveEm@GLIBCXX_3.4.21>
   17486:	68 45 00 00 00       	push   $0x45
   1748b:	e9 90 fb ff ff       	jmp    17020 <_init+0x20>

0000000000017490 <_ZNSt7__cxx1112basic_stringIcSt11char_traitsIcESaIcEE6insertEmRKS4_@plt>:
   17490:	ff 25 b2 9d 02 00    	jmp    *0x29db2(%rip)        # 41248 <_ZNSt7__cxx1112basic_stringIcSt11char_traitsIcESaIcEE6insertEmRKS4_@GLIBCXX_3.4.21>
   17496:	68 46 00 00 00       	push   $0x46
   1749b:	e9 80 fb ff ff       	jmp    17020 <_init+0x20>

00000000000174a0 <memmove@plt>:
   174a0:	ff 25 aa 9d 02 00    	jmp    *0x29daa(%rip)        # 41250 <memmove@GLIBC_2.2.5>
   174a6:	68 47 00 00 00       	push   $0x47
   174ab:	e9 70 fb ff ff       	jmp    17020 <_init+0x20>

00000000000174b0 <__cxa_end_catch@plt>:
   174b0:	ff 25 a2 9d 02 00    	jmp    *0x29da2(%rip)        # 41258 <__cxa_end_catch@CXXABI_1.3>
   174b6:	68 48 00 00 00       	push   $0x48
   174bb:	e9 60 fb ff ff       	jmp    17020 <_init+0x20>

00000000000174c0 <__cxa_throw@plt>:
   174c0:	ff 25 9a 9d 02 00    	jmp    *0x29d9a(%rip)        # 41260 <__cxa_throw@CXXABI_1.3>
   174c6:	68 49 00 00 00       	push   $0x49
   174cb:	e9 50 fb ff ff       	jmp    17020 <_init+0x20>

00000000000174d0 <_ZNSt7__cxx1112basic_stringIcSt11char_traitsIcESaIcEEC1ERKS3_@plt>:
   174d0:	ff 25 92 9d 02 00    	jmp    *0x29d92(%rip)        # 41268 <_ZNSt7__cxx1112basic_stringIcSt11char_traitsIcESaIcEEC1ERKS3_@GLIBCXX_3.4.21>
   174d6:	68 4a 00 00 00       	push   $0x4a
   174db:	e9 40 fb ff ff       	jmp    17020 <_init+0x20>

00000000000174e0 <_ZNSolsEi@plt>:
   174e0:	ff 25 8a 9d 02 00    	jmp    *0x29d8a(%rip)        # 41270 <_ZNSolsEi@GLIBCXX_3.4>
   174e6:	68 4b 00 00 00       	push   $0x4b
   174eb:	e9 30 fb ff ff       	jmp    17020 <_init+0x20>

00000000000174f0 <sqlite3_open@plt>:
   174f0:	ff 25 82 9d 02 00    	jmp    *0x29d82(%rip)        # 41278 <sqlite3_open>
   174f6:	68 4c 00 00 00       	push   $0x4c
   174fb:	e9 20 fb ff ff       	jmp    17020 <_init+0x20>

0000000000017500 <_Unwind_Resume@plt>:
   17500:	ff 25 7a 9d 02 00    	jmp    *0x29d7a(%rip)        # 41280 <_Unwind_Resume@GCC_3.0>
   17506:	68 4d 00 00 00       	push   $0x4d
   1750b:	e9 10 fb ff ff       	jmp    17020 <_init+0x20>

0000000000017510 <_ZNSaIcEC1Ev@plt>:
   17510:	ff 25 72 9d 02 00    	jmp    *0x29d72(%rip)        # 41288 <_ZNSaIcEC1Ev@GLIBCXX_3.4>
   17516:	68 4e 00 00 00       	push   $0x4e
   1751b:	e9 00 fb ff ff       	jmp    17020 <_init+0x20>

0000000000017520 <_ZNSt7__cxx1112basic_stringIcSt11char_traitsIcESaIcEE9_M_createERmm@plt>:
   17520:	ff 25 6a 9d 02 00    	jmp    *0x29d6a(%rip)        # 41290 <_ZNSt7__cxx1112basic_stringIcSt11char_traitsIcESaIcEE9_M_createERmm@GLIBCXX_3.4.21>
   17526:	68 4f 00 00 00       	push   $0x4f
   1752b:	e9 f0 fa ff ff       	jmp    17020 <_init+0x20>

0000000000017530 <_ZNSolsEd@plt>:
   17530:	ff 25 62 9d 02 00    	jmp    *0x29d62(%rip)        # 41298 <_ZNSolsEd@GLIBCXX_3.4>
   17536:	68 50 00 00 00       	push   $0x50
   1753b:	e9 e0 fa ff ff       	jmp    17020 <_init+0x20>

0000000000017540 <_ZNSt7__cxx1112basic_stringIcSt11char_traitsIcESaIcEE6appendEPKc@plt>:
   17540:	ff 25 5a 9d 02 00    	jmp    *0x29d5a(%rip)        # 412a0 <_ZNSt7__cxx1112basic_stringIcSt11char_traitsIcESaIcEE6appendEPKc@GLIBCXX_3.4.21>
   17546:	68 51 00 00 00       	push   $0x51
   1754b:	e9 d0 fa ff ff       	jmp    17020 <_init+0x20>

0000000000017550 <_ZNSt7__cxx1112basic_stringIcSt11char_traitsIcESaIcEE6appendERKS4_@plt>:
   17550:	ff 25 52 9d 02 00    	jmp    *0x29d52(%rip)        # 412a8 <_ZNSt7__cxx1112basic_stringIcSt11char_traitsIcESaIcEE6appendERKS4_@GLIBCXX_3.4.21>
   17556:	68 52 00 00 00       	push   $0x52
   1755b:	e9 c0 fa ff ff       	jmp    17020 <_init+0x20>

0000000000017560 <_ZNSt7__cxx1112basic_stringIcSt11char_traitsIcESaIcEE11_M_capacityEm@plt>:
   17560:	ff 25 4a 9d 02 00    	jmp    *0x29d4a(%rip)        # 412b0 <_ZNSt7__cxx1112basic_stringIcSt11char_traitsIcESaIcEE11_M_capacityEm@GLIBCXX_3.4.21>
   17566:	68 53 00 00 00       	push   $0x53
   1756b:	e9 b0 fa ff ff       	jmp    17020 <_init+0x20>

0000000000017570 <_ZNSt7__cxx1112basic_stringIcSt11char_traitsIcESaIcEEixEm@plt>:
   17570:	ff 25 42 9d 02 00    	jmp    *0x29d42(%rip)        # 412b8 <_ZNSt7__cxx1112basic_stringIcSt11char_traitsIcESaIcEEixEm@GLIBCXX_3.4.21>
   17576:	68 54 00 00 00       	push   $0x54
   1757b:	e9 a0 fa ff ff       	jmp    17020 <_init+0x20>

Disassembly of section .plt.got:

0000000000017580 <_ZNSt7__cxx1112basic_stringIcSt11char_traitsIcESaIcEED1Ev@plt>:
   17580:	ff 25 3a 9a 02 00    	jmp    *0x29a3a(%rip)        # 40fc0 <_ZNSt7__cxx1112basic_stringIcSt11char_traitsIcESaIcEED1Ev@GLIBCXX_3.4.21>
   17586:	66 90                	xchg   %ax,%ax

Disassembly of section .text:

0000000000017590 <_start>:
   17590:	f3 0f 1e fa          	endbr64 
   17594:	31 ed                	xor    %ebp,%ebp
   17596:	49 89 d1             	mov    %rdx,%r9
   17599:	5e                   	pop    %rsi
   1759a:	48 89 e2             	mov    %rsp,%rdx
   1759d:	48 83 e4 f0          	and    $0xfffffffffffffff0,%rsp
   175a1:	50                   	push   %rax
   175a2:	54                   	push   %rsp
   175a3:	4c 8d 05 96 bf 01 00 	lea    0x1bf96(%rip),%r8        # 33540 <__libc_csu_fini>
   175aa:	48 8d 0d 1f bf 01 00 	lea    0x1bf1f(%rip),%rcx        # 334d0 <__libc_csu_init>
   175b1:	48 8d 3d 5c 20 00 00 	lea    0x205c(%rip),%rdi        # 19614 <main>
   175b8:	ff 15 22 9a 02 00    	call   *0x29a22(%rip)        # 40fe0 <__libc_start_main@GLIBC_2.2.5>
   175be:	f4                   	hlt    
   175bf:	90                   	nop

00000000000175c0 <deregister_tm_clones>:
   175c0:	48 8d 3d 31 9d 02 00 	lea    0x29d31(%rip),%rdi        # 412f8 <__TMC_END__>
   175c7:	48 8d 05 2a 9d 02 00 	lea    0x29d2a(%rip),%rax        # 412f8 <__TMC_END__>
   175ce:	48 39 f8             	cmp    %rdi,%rax
   175d1:	74 15                	je     175e8 <deregister_tm_clones+0x28>
   175d3:	48 8b 05 fe 99 02 00 	mov    0x299fe(%rip),%rax        # 40fd8 <_ITM_deregisterTMCloneTable>
   175da:	48 85 c0             	test   %rax,%rax
   175dd:	74 09                	je     175e8 <deregister_tm_clones+0x28>
   175df:	ff e0                	jmp    *%rax
   175e1:	0f 1f 80 00 00 00 00 	nopl   0x0(%rax)
   175e8:	c3                   	ret    
   175e9:	0f 1f 80 00 00 00 00 	nopl   0x0(%rax)

00000000000175f0 <register_tm_clones>:
   175f0:	48 8d 3d 01 9d 02 00 	lea    0x29d01(%rip),%rdi        # 412f8 <__TMC_END__>
   175f7:	48 8d 35 fa 9c 02 00 	lea    0x29cfa(%rip),%rsi        # 412f8 <__TMC_END__>
   175fe:	48 29 fe             	sub    %rdi,%rsi
   17601:	48 89 f0             	mov    %rsi,%rax
   17604:	48 c1 ee 3f          	shr    $0x3f,%rsi
   17608:	48 c1 f8 03          	sar    $0x3,%rax
   1760c:	48 01 c6             	add    %rax,%rsi
   1760f:	48 d1 fe             	sar    %rsi
   17612:	74 14                	je     17628 <register_tm_clones+0x38>
   17614:	48 8b 05 d5 99 02 00 	mov    0x299d5(%rip),%rax        # 40ff0 <_ITM_registerTMCloneTable>
   1761b:	48 85 c0             	test   %rax,%rax
   1761e:	74 08                	je     17628 <register_tm_clones+0x38>
   17620:	ff e0                	jmp    *%rax
   17622:	66 0f 1f 44 00 00    	nopw   0x0(%rax,%rax,1)
   17628:	c3                   	ret    
   17629:	0f 1f 80 00 00 00 00 	nopl   0x0(%rax)

0000000000017630 <__do_global_dtors_aux>:
   17630:	f3 0f 1e fa          	endbr64 
   17634:	80 3d 35 a0 02 00 00 	cmpb   $0x0,0x2a035(%rip)        # 41670 <completed.0>
   1763b:	75 33                	jne    17670 <__do_global_dtors_aux+0x40>
   1763d:	55                   	push   %rbp
   1763e:	48 83 3d 6a 99 02 00 	cmpq   $0x0,0x2996a(%rip)        # 40fb0 <__cxa_finalize@GLIBC_2.2.5>
   17645:	00 
   17646:	48 89 e5             	mov    %rsp,%rbp
   17649:	74 0d                	je     17658 <__do_global_dtors_aux+0x28>
   1764b:	48 8b 3d 76 9c 02 00 	mov    0x29c76(%rip),%rdi        # 412c8 <__dso_handle>
   17652:	ff 15 58 99 02 00    	call   *0x29958(%rip)        # 40fb0 <__cxa_finalize@GLIBC_2.2.5>
   17658:	e8 63 ff ff ff       	call   175c0 <deregister_tm_clones>
   1765d:	c6 05 0c a0 02 00 01 	movb   $0x1,0x2a00c(%rip)        # 41670 <completed.0>
   17664:	5d                   	pop    %rbp
   17665:	c3                   	ret    
   17666:	66 2e 0f 1f 84 00 00 	cs nopw 0x0(%rax,%rax,1)
   1766d:	00 00 00 
   17670:	c3                   	ret    
   17671:	66 66 2e 0f 1f 84 00 	data16 cs nopw 0x0(%rax,%rax,1)
   17678:	00 00 00 00 
   1767c:	0f 1f 40 00          	nopl   0x0(%rax)

0000000000017680 <frame_dummy>:
   17680:	f3 0f 1e fa          	endbr64 
   17684:	e9 67 ff ff ff       	jmp    175f0 <register_tm_clones>

0000000000017689 <_Z13getIndexOfferR7Companyi>:
   17689:	55                   	push   %rbp
   1768a:	48 89 e5             	mov    %rsp,%rbp
   1768d:	53                   	push   %rbx
   1768e:	48 83 ec 28          	sub    $0x28,%rsp
   17692:	48 89 7d d8          	mov    %rdi,-0x28(%rbp)
   17696:	89 75 d4             	mov    %esi,-0x2c(%rbp)
   17699:	c7 45 ec 00 00 00 00 	movl   $0x0,-0x14(%rbp)
   176a0:	eb 3a                	jmp    176dc <_Z13getIndexOfferR7Companyi+0x53>
   176a2:	48 8b 45 d8          	mov    -0x28(%rbp),%rax
   176a6:	48 89 c7             	mov    %rax,%rdi
   176a9:	e8 04 ff 00 00       	call   275b2 <_ZN7Company9getOffersEv>
   176ae:	48 89 c2             	mov    %rax,%rdx
   176b1:	8b 45 ec             	mov    -0x14(%rbp),%eax
   176b4:	48 98                	cltq   
   176b6:	48 89 c6             	mov    %rax,%rsi
   176b9:	48 89 d7             	mov    %rdx,%rdi
   176bc:	e8 4d 8a 00 00       	call   2010e <_ZNSt6vectorI5OfferSaIS0_EEixEm>
   176c1:	48 89 c7             	mov    %rax,%rdi
   176c4:	e8 9f 5c 01 00       	call   2d368 <_ZNK5Offer10getOfferIdEv>
   176c9:	39 45 d4             	cmp    %eax,-0x2c(%rbp)
   176cc:	0f 94 c0             	sete   %al
   176cf:	84 c0                	test   %al,%al
   176d1:	74 05                	je     176d8 <_Z13getIndexOfferR7Companyi+0x4f>
   176d3:	8b 45 ec             	mov    -0x14(%rbp),%eax
   176d6:	eb 2d                	jmp    17705 <_Z13getIndexOfferR7Companyi+0x7c>
   176d8:	83 45 ec 01          	addl   $0x1,-0x14(%rbp)
   176dc:	8b 45 ec             	mov    -0x14(%rbp),%eax
   176df:	48 63 d8             	movslq %eax,%rbx
   176e2:	48 8b 45 d8          	mov    -0x28(%rbp),%rax
   176e6:	48 89 c7             	mov    %rax,%rdi
   176e9:	e8 c4 fe 00 00       	call   275b2 <_ZN7Company9getOffersEv>
   176ee:	48 89 c7             	mov    %rax,%rdi
   176f1:	e8 e4 89 00 00       	call   200da <_ZNKSt6vectorI5OfferSaIS0_EE4sizeEv>
   176f6:	48 39 c3             	cmp    %rax,%rbx
   176f9:	0f 92 c0             	setb   %al
   176fc:	84 c0                	test   %al,%al
   176fe:	75 a2                	jne    176a2 <_Z13getIndexOfferR7Companyi+0x19>
   17700:	b8 ff ff ff ff       	mov    $0xffffffff,%eax
   17705:	48 8b 5d f8          	mov    -0x8(%rbp),%rbx
   17709:	c9                   	leave  
   1770a:	c3                   	ret    

000000000001770b <_Z15getIndexCollegeR7Companyii>:
   1770b:	55                   	push   %rbp
   1770c:	48 89 e5             	mov    %rsp,%rbp
   1770f:	41 54                	push   %r12
   17711:	53                   	push   %rbx
   17712:	48 83 ec 20          	sub    $0x20,%rsp
   17716:	48 89 7d d8          	mov    %rdi,-0x28(%rbp)
   1771a:	89 75 d4             	mov    %esi,-0x2c(%rbp)
   1771d:	89 55 d0             	mov    %edx,-0x30(%rbp)
   17720:	c7 45 ec 00 00 00 00 	movl   $0x0,-0x14(%rbp)
   17727:	eb 63                	jmp    1778c <_Z15getIndexCollegeR7Companyii+0x81>
   17729:	48 8b 45 d8          	mov    -0x28(%rbp),%rax
   1772d:	48 89 c7             	mov    %rax,%rdi
   17730:	e8 7d fe 00 00       	call   275b2 <_ZN7Company9getOffersEv>
   17735:	48 89 c3             	mov    %rax,%rbx
   17738:	8b 55 d4             	mov    -0x2c(%rbp),%edx
   1773b:	48 8b 45 d8          	mov    -0x28(%rbp),%rax
   1773f:	89 d6                	mov    %edx,%esi
   17741:	48 89 c7             	mov    %rax,%rdi
   17744:	e8 40 ff ff ff       	call   17689 <_Z13getIndexOfferR7Companyi>
   17749:	48 98                	cltq   
   1774b:	48 89 c6             	mov    %rax,%rsi
   1774e:	48 89 df             	mov    %rbx,%rdi
   17751:	e8 e2 89 00 00       	call   20138 <_ZNSt6vectorI5OfferSaIS0_EE2atEm>
   17756:	48 89 c7             	mov    %rax,%rdi
   17759:	e8 c8 5b 01 00       	call   2d326 <_ZN5Offer10getCollegeEv>
   1775e:	48 89 c2             	mov    %rax,%rdx
   17761:	8b 45 ec             	mov    -0x14(%rbp),%eax
   17764:	48 98                	cltq   
   17766:	48 89 c6             	mov    %rax,%rsi
   17769:	48 89 d7             	mov    %rdx,%rdi
   1776c:	e8 33 8a 00 00       	call   201a4 <_ZNSt6vectorI7CollegeSaIS0_EEixEm>
   17771:	48 89 c7             	mov    %rax,%rdi
   17774:	e8 35 ba 00 00       	call   231ae <_ZNK7College12getCollegeIdEv>
   17779:	39 45 d0             	cmp    %eax,-0x30(%rbp)
   1777c:	0f 94 c0             	sete   %al
   1777f:	84 c0                	test   %al,%al
   17781:	74 05                	je     17788 <_Z15getIndexCollegeR7Companyii+0x7d>
   17783:	8b 45 ec             	mov    -0x14(%rbp),%eax
   17786:	eb 5a                	jmp    177e2 <_Z15getIndexCollegeR7Companyii+0xd7>
   17788:	83 45 ec 01          	addl   $0x1,-0x14(%rbp)
   1778c:	8b 45 ec             	mov    -0x14(%rbp),%eax
   1778f:	48 63 d8             	movslq %eax,%rbx
   17792:	48 8b 45 d8          	mov    -0x28(%rbp),%rax
   17796:	48 89 c7             	mov    %rax,%rdi
   17799:	e8 14 fe 00 00       	call   275b2 <_ZN7Company9getOffersEv>
   1779e:	49 89 c4             	mov    %rax,%r12
   177a1:	8b 55 d4             	mov    -0x2c(%rbp),%edx
   177a4:	48 8b 45 d8          	mov    -0x28(%rbp),%rax
   177a8:	89 d6                	mov    %edx,%esi
   177aa:	48 89 c7             	mov    %rax,%rdi
   177ad:	e8 d7 fe ff ff       	call   17689 <_Z13getIndexOfferR7Companyi>
   177b2:	48 98                	cltq   
   177b4:	48 89 c6             	mov    %rax,%rsi
   177b7:	4c 89 e7             	mov    %r12,%rdi
   177ba:	e8 79 89 00 00       	call   20138 <_ZNSt6vectorI5OfferSaIS0_EE2atEm>
   177bf:	48 89 c7             	mov    %rax,%rdi
   177c2:	e8 5f 5b 01 00       	call   2d326 <_ZN5Offer10getCollegeEv>
   177c7:	48 89 c7             	mov    %rax,%rdi
   177ca:	e8 a1 89 00 00       	call   20170 <_ZNKSt6vectorI7CollegeSaIS0_EE4sizeEv>
   177cf:	48 39 c3             	cmp    %rax,%rbx
   177d2:	0f 92 c0             	setb   %al
   177d5:	84 c0                	test   %al,%al
   177d7:	0f 85 4c ff ff ff    	jne    17729 <_Z15getIndexCollegeR7Companyii+0x1e>
   177dd:	b8 ff ff ff ff       	mov    $0xffffffff,%eax
   177e2:	48 83 c4 20          	add    $0x20,%rsp
   177e6:	5b                   	pop    %rbx
   177e7:	41 5c                	pop    %r12
   177e9:	5d                   	pop    %rbp
   177ea:	c3                   	ret    

00000000000177eb <_Z15getIndexStudentR7Companyiii>:
   177eb:	55                   	push   %rbp
   177ec:	48 89 e5             	mov    %rsp,%rbp
   177ef:	41 54                	push   %r12
   177f1:	53                   	push   %rbx
   177f2:	48 83 ec 30          	sub    $0x30,%rsp
   177f6:	48 89 7d d8          	mov    %rdi,-0x28(%rbp)
   177fa:	89 75 d4             	mov    %esi,-0x2c(%rbp)
   177fd:	89 55 d0             	mov    %edx,-0x30(%rbp)
   17800:	89 4d cc             	mov    %ecx,-0x34(%rbp)
   17803:	c7 45 ec 00 00 00 00 	movl   $0x0,-0x14(%rbp)
   1780a:	e9 92 00 00 00       	jmp    178a1 <_Z15getIndexStudentR7Companyiii+0xb6>
   1780f:	48 8b 45 d8          	mov    -0x28(%rbp),%rax
   17813:	48 89 c7             	mov    %rax,%rdi
   17816:	e8 97 fd 00 00       	call   275b2 <_ZN7Company9getOffersEv>
   1781b:	48 89 c3             	mov    %rax,%rbx
   1781e:	8b 55 d4             	mov    -0x2c(%rbp),%edx
   17821:	48 8b 45 d8          	mov    -0x28(%rbp),%rax
   17825:	89 d6                	mov    %edx,%esi
   17827:	48 89 c7             	mov    %rax,%rdi
   1782a:	e8 5a fe ff ff       	call   17689 <_Z13getIndexOfferR7Companyi>
   1782f:	48 98                	cltq   
   17831:	48 89 c6             	mov    %rax,%rsi
   17834:	48 89 df             	mov    %rbx,%rdi
   17837:	e8 fc 88 00 00       	call   20138 <_ZNSt6vectorI5OfferSaIS0_EE2atEm>
   1783c:	48 89 c7             	mov    %rax,%rdi
   1783f:	e8 e2 5a 01 00       	call   2d326 <_ZN5Offer10getCollegeEv>
   17844:	48 89 c3             	mov    %rax,%rbx
   17847:	8b 55 d0             	mov    -0x30(%rbp),%edx
   1784a:	8b 4d d4             	mov    -0x2c(%rbp),%ecx
   1784d:	48 8b 45 d8          	mov    -0x28(%rbp),%rax
   17851:	89 ce                	mov    %ecx,%esi
   17853:	48 89 c7             	mov    %rax,%rdi
   17856:	e8 b0 fe ff ff       	call   1770b <_Z15getIndexCollegeR7Companyii>
   1785b:	48 98                	cltq   
   1785d:	48 89 c6             	mov    %rax,%rsi
   17860:	48 89 df             	mov    %rbx,%rdi
   17863:	e8 66 89 00 00       	call   201ce <_ZNSt6vectorI7CollegeSaIS0_EE2atEm>
   17868:	48 89 c7             	mov    %rax,%rdi
   1786b:	e8 2c b9 00 00       	call   2319c <_ZN7College10getStudentEv>
   17870:	48 89 c2             	mov    %rax,%rdx
   17873:	8b 45 ec             	mov    -0x14(%rbp),%eax
   17876:	48 98                	cltq   
   17878:	48 89 c6             	mov    %rax,%rsi
   1787b:	48 89 d7             	mov    %rdx,%rdi
   1787e:	e8 b7 89 00 00       	call   2023a <_ZNSt6vectorI7StudentSaIS0_EEixEm>
   17883:	48 89 c7             	mov    %rax,%rdi
   17886:	e8 4d 99 01 00       	call   311d8 <_ZNK7Student5getIDEv>
   1788b:	39 45 cc             	cmp    %eax,-0x34(%rbp)
   1788e:	0f 94 c0             	sete   %al
   17891:	84 c0                	test   %al,%al
   17893:	74 08                	je     1789d <_Z15getIndexStudentR7Companyiii+0xb2>
   17895:	8b 45 ec             	mov    -0x14(%rbp),%eax
   17898:	e9 86 00 00 00       	jmp    17923 <_Z15getIndexStudentR7Companyiii+0x138>
   1789d:	83 45 ec 01          	addl   $0x1,-0x14(%rbp)
   178a1:	8b 45 ec             	mov    -0x14(%rbp),%eax
   178a4:	48 63 d8             	movslq %eax,%rbx
   178a7:	48 8b 45 d8          	mov    -0x28(%rbp),%rax
   178ab:	48 89 c7             	mov    %rax,%rdi
   178ae:	e8 ff fc 00 00       	call   275b2 <_ZN7Company9getOffersEv>
   178b3:	49 89 c4             	mov    %rax,%r12
   178b6:	8b 55 d4             	mov    -0x2c(%rbp),%edx
   178b9:	48 8b 45 d8          	mov    -0x28(%rbp),%rax
   178bd:	89 d6                	mov    %edx,%esi
   178bf:	48 89 c7             	mov    %rax,%rdi
   178c2:	e8 c2 fd ff ff       	call   17689 <_Z13getIndexOfferR7Companyi>
   178c7:	48 98                	cltq   
   178c9:	48 89 c6             	mov    %rax,%rsi
   178cc:	4c 89 e7             	mov    %r12,%rdi
   178cf:	e8 64 88 00 00       	call   20138 <_ZNSt6vectorI5OfferSaIS0_EE2atEm>
   178d4:	48 89 c7             	mov    %rax,%rdi
   178d7:	e8 4a 5a 01 00       	call   2d326 <_ZN5Offer10getCollegeEv>
   178dc:	49 89 c4             	mov    %rax,%r12
   178df:	8b 55 d0             	mov    -0x30(%rbp),%edx
   178e2:	8b 4d d4             	mov    -0x2c(%rbp),%ecx
   178e5:	48 8b 45 d8          	mov    -0x28(%rbp),%rax
   178e9:	89 ce                	mov    %ecx,%esi
   178eb:	48 89 c7             	mov    %rax,%rdi
   178ee:	e8 18 fe ff ff       	call   1770b <_Z15getIndexCollegeR7Companyii>
   178f3:	48 98                	cltq   
   178f5:	48 89 c6             	mov    %rax,%rsi
   178f8:	4c 89 e7             	mov    %r12,%rdi
   178fb:	e8 ce 88 00 00       	call   201ce <_ZNSt6vectorI7CollegeSaIS0_EE2atEm>
   17900:	48 89 c7             	mov    %rax,%rdi
   17903:	e8 94 b8 00 00       	call   2319c <_ZN7College10getStudentEv>
   17908:	48 89 c7             	mov    %rax,%rdi
   1790b:	e8 f6 88 00 00       	call   20206 <_ZNKSt6vectorI7StudentSaIS0_EE4sizeEv>
   17910:	48 39 c3             	cmp    %rax,%rbx
   17913:	0f 92 c0             	setb   %al
   17916:	84 c0                	test   %al,%al
   17918:	0f 85 f1 fe ff ff    	jne    1780f <_Z15getIndexStudentR7Companyiii+0x24>
   1791e:	b8 ff ff ff ff       	mov    $0xffffffff,%eax
   17923:	48 83 c4 30          	add    $0x30,%rsp
   17927:	5b                   	pop    %rbx
   17928:	41 5c                	pop    %r12
   1792a:	5d                   	pop    %rbp
   1792b:	c3                   	ret    

000000000001792c <_ZL8callbackPviPPcS1_>:
   1792c:	55                   	push   %rbp
   1792d:	48 89 e5             	mov    %rsp,%rbp
   17930:	48 83 ec 20          	sub    $0x20,%rsp
   17934:	48 89 7d f8          	mov    %rdi,-0x8(%rbp)
   17938:	89 75 f4             	mov    %esi,-0xc(%rbp)
   1793b:	48 89 55 e8          	mov    %rdx,-0x18(%rbp)
   1793f:	48 89 4d e0          	mov    %rcx,-0x20(%rbp)
   17943:	48 8b 45 e8          	mov    -0x18(%rbp),%rax
   17947:	48 8b 00             	mov    (%rax),%rax
   1794a:	48 89 c7             	mov    %rax,%rdi
   1794d:	e8 1e fb ff ff       	call   17470 <atoi@plt>
   17952:	48 8b 55 f8          	mov    -0x8(%rbp),%rdx
   17956:	89 02                	mov    %eax,(%rdx)
   17958:	b8 00 00 00 00       	mov    $0x0,%eax
   1795d:	c9                   	leave  
   1795e:	c3                   	ret    

000000000001795f <_ZL15companyCallbackPviPPcS1_>:
   1795f:	55                   	push   %rbp
   17960:	48 89 e5             	mov    %rsp,%rbp
   17963:	53                   	push   %rbx
   17964:	48 83 ec 68          	sub    $0x68,%rsp
   17968:	48 89 7d a8          	mov    %rdi,-0x58(%rbp)
   1796c:	89 75 a4             	mov    %esi,-0x5c(%rbp)
   1796f:	48 89 55 98          	mov    %rdx,-0x68(%rbp)
   17973:	48 89 4d 90          	mov    %rcx,-0x70(%rbp)
   17977:	64 48 8b 04 25 28 00 	mov    %fs:0x28,%rax
   1797e:	00 00 
   17980:	48 89 45 e8          	mov    %rax,-0x18(%rbp)
   17984:	31 c0                	xor    %eax,%eax
   17986:	48 8b 45 98          	mov    -0x68(%rbp),%rax
   1798a:	48 8b 00             	mov    (%rax),%rax
   1798d:	48 89 c7             	mov    %rax,%rdi
   17990:	e8 db fa ff ff       	call   17470 <atoi@plt>
   17995:	89 c2                	mov    %eax,%edx
   17997:	48 8b 45 a8          	mov    -0x58(%rbp),%rax
   1799b:	89 d6                	mov    %edx,%esi
   1799d:	48 89 c7             	mov    %rax,%rdi
   179a0:	e8 fd eb 00 00       	call   265a2 <_ZN7Company12setCompanyIdEi>
   179a5:	48 8d 45 bf          	lea    -0x41(%rbp),%rax
   179a9:	48 89 c7             	mov    %rax,%rdi
   179ac:	e8 5f fb ff ff       	call   17510 <_ZNSaIcEC1Ev@plt>
   179b1:	48 8b 45 98          	mov    -0x68(%rbp),%rax
   179b5:	48 83 c0 08          	add    $0x8,%rax
   179b9:	48 8b 08             	mov    (%rax),%rcx
   179bc:	48 8d 55 bf          	lea    -0x41(%rbp),%rdx
   179c0:	48 8d 45 c0          	lea    -0x40(%rbp),%rax
   179c4:	48 89 ce             	mov    %rcx,%rsi
   179c7:	48 89 c7             	mov    %rax,%rdi
   179ca:	e8 95 88 00 00       	call   20264 <_ZNSt7__cxx1112basic_stringIcSt11char_traitsIcESaIcEEC1IS3_EEPKcRKS3_>
   179cf:	48 8d 55 c0          	lea    -0x40(%rbp),%rdx
   179d3:	48 8b 45 a8          	mov    -0x58(%rbp),%rax
   179d7:	48 89 d6             	mov    %rdx,%rsi
   179da:	48 89 c7             	mov    %rax,%rdi
   179dd:	e8 d8 eb 00 00       	call   265ba <_ZN7Company7setNameENSt7__cxx1112basic_stringIcSt11char_traitsIcESaIcEEE>
   179e2:	48 8d 45 c0          	lea    -0x40(%rbp),%rax
   179e6:	48 89 c7             	mov    %rax,%rdi
   179e9:	e8 92 fb ff ff       	call   17580 <_ZNSt7__cxx1112basic_stringIcSt11char_traitsIcESaIcEED1Ev@plt>
   179ee:	48 8d 45 bf          	lea    -0x41(%rbp),%rax
   179f2:	48 89 c7             	mov    %rax,%rdi
   179f5:	e8 06 f9 ff ff       	call   17300 <_ZNSaIcED1Ev@plt>
   179fa:	48 8d 45 bf          	lea    -0x41(%rbp),%rax
   179fe:	48 89 c7             	mov    %rax,%rdi
   17a01:	e8 0a fb ff ff       	call   17510 <_ZNSaIcEC1Ev@plt>
   17a06:	48 8b 45 98          	mov    -0x68(%rbp),%rax
   17a0a:	48 83 c0 10          	add    $0x10,%rax
   17a0e:	48 8b 08             	mov    (%rax),%rcx
   17a11:	48 8d 55 bf          	lea    -0x41(%rbp),%rdx
   17a15:	48 8d 45 c0          	lea    -0x40(%rbp),%rax
   17a19:	48 89 ce             	mov    %rcx,%rsi
   17a1c:	48 89 c7             	mov    %rax,%rdi
   17a1f:	e8 40 88 00 00       	call   20264 <_ZNSt7__cxx1112basic_stringIcSt11char_traitsIcESaIcEEC1IS3_EEPKcRKS3_>
   17a24:	48 8d 55 c0          	lea    -0x40(%rbp),%rdx
   17a28:	48 8b 45 a8          	mov    -0x58(%rbp),%rax
   17a2c:	48 89 d6             	mov    %rdx,%rsi
   17a2f:	48 89 c7             	mov    %rax,%rdi
   17a32:	e8 d7 eb 00 00       	call   2660e <_ZN7Company14setPhoneNumberENSt7__cxx1112basic_stringIcSt11char_traitsIcESaIcEEE>
   17a37:	48 8d 45 c0          	lea    -0x40(%rbp),%rax
   17a3b:	48 89 c7             	mov    %rax,%rdi
   17a3e:	e8 3d fb ff ff       	call   17580 <_ZNSt7__cxx1112basic_stringIcSt11char_traitsIcESaIcEED1Ev@plt>
   17a43:	48 8d 45 bf          	lea    -0x41(%rbp),%rax
   17a47:	48 89 c7             	mov    %rax,%rdi
   17a4a:	e8 b1 f8 ff ff       	call   17300 <_ZNSaIcED1Ev@plt>
   17a4f:	48 8d 45 bf          	lea    -0x41(%rbp),%rax
   17a53:	48 89 c7             	mov    %rax,%rdi
   17a56:	e8 b5 fa ff ff       	call   17510 <_ZNSaIcEC1Ev@plt>
   17a5b:	48 8b 45 98          	mov    -0x68(%rbp),%rax
   17a5f:	48 83 c0 18          	add    $0x18,%rax
   17a63:	48 8b 08             	mov    (%rax),%rcx
   17a66:	48 8d 55 bf          	lea    -0x41(%rbp),%rdx
   17a6a:	48 8d 45 c0          	lea    -0x40(%rbp),%rax
   17a6e:	48 89 ce             	mov    %rcx,%rsi
   17a71:	48 89 c7             	mov    %rax,%rdi
   17a74:	e8 eb 87 00 00       	call   20264 <_ZNSt7__cxx1112basic_stringIcSt11char_traitsIcESaIcEEC1IS3_EEPKcRKS3_>
   17a79:	48 8d 55 c0          	lea    -0x40(%rbp),%rdx
   17a7d:	48 8b 45 a8          	mov    -0x58(%rbp),%rax
   17a81:	48 89 d6             	mov    %rdx,%rsi
   17a84:	48 89 c7             	mov    %rax,%rdi
   17a87:	e8 58 eb 00 00       	call   265e4 <_ZN7Company8setEmailENSt7__cxx1112basic_stringIcSt11char_traitsIcESaIcEEE>
   17a8c:	48 8d 45 c0          	lea    -0x40(%rbp),%rax
   17a90:	48 89 c7             	mov    %rax,%rdi
   17a93:	e8 e8 fa ff ff       	call   17580 <_ZNSt7__cxx1112basic_stringIcSt11char_traitsIcESaIcEED1Ev@plt>
   17a98:	48 8d 45 bf          	lea    -0x41(%rbp),%rax
   17a9c:	48 89 c7             	mov    %rax,%rdi
   17a9f:	e8 5c f8 ff ff       	call   17300 <_ZNSaIcED1Ev@plt>
   17aa4:	b8 00 00 00 00       	mov    $0x0,%eax
   17aa9:	48 8b 55 e8          	mov    -0x18(%rbp),%rdx
   17aad:	64 48 2b 14 25 28 00 	sub    %fs:0x28,%rdx
   17ab4:	00 00 
   17ab6:	0f 84 8b 00 00 00    	je     17b47 <_ZL15companyCallbackPviPPcS1_+0x1e8>
   17abc:	e9 81 00 00 00       	jmp    17b42 <_ZL15companyCallbackPviPPcS1_+0x1e3>
   17ac1:	48 89 c3             	mov    %rax,%rbx
   17ac4:	48 8d 45 c0          	lea    -0x40(%rbp),%rax
   17ac8:	48 89 c7             	mov    %rax,%rdi
   17acb:	e8 b0 fa ff ff       	call   17580 <_ZNSt7__cxx1112basic_stringIcSt11char_traitsIcESaIcEED1Ev@plt>
   17ad0:	eb 03                	jmp    17ad5 <_ZL15companyCallbackPviPPcS1_+0x176>
   17ad2:	48 89 c3             	mov    %rax,%rbx
   17ad5:	48 8d 45 bf          	lea    -0x41(%rbp),%rax
   17ad9:	48 89 c7             	mov    %rax,%rdi
   17adc:	e8 1f f8 ff ff       	call   17300 <_ZNSaIcED1Ev@plt>
   17ae1:	48 89 d8             	mov    %rbx,%rax
   17ae4:	48 89 c7             	mov    %rax,%rdi
   17ae7:	e8 14 fa ff ff       	call   17500 <_Unwind_Resume@plt>
   17aec:	48 89 c3             	mov    %rax,%rbx
   17aef:	48 8d 45 c0          	lea    -0x40(%rbp),%rax
   17af3:	48 89 c7             	mov    %rax,%rdi
   17af6:	e8 85 fa ff ff       	call   17580 <_ZNSt7__cxx1112basic_stringIcSt11char_traitsIcESaIcEED1Ev@plt>
   17afb:	eb 03                	jmp    17b00 <_ZL15companyCallbackPviPPcS1_+0x1a1>
   17afd:	48 89 c3             	mov    %rax,%rbx
   17b00:	48 8d 45 bf          	lea    -0x41(%rbp),%rax
   17b04:	48 89 c7             	mov    %rax,%rdi
   17b07:	e8 f4 f7 ff ff       	call   17300 <_ZNSaIcED1Ev@plt>
   17b0c:	48 89 d8             	mov    %rbx,%rax
   17b0f:	48 89 c7             	mov    %rax,%rdi
   17b12:	e8 e9 f9 ff ff       	call   17500 <_Unwind_Resume@plt>
   17b17:	48 89 c3             	mov    %rax,%rbx
   17b1a:	48 8d 45 c0          	lea    -0x40(%rbp),%rax
   17b1e:	48 89 c7             	mov    %rax,%rdi
   17b21:	e8 5a fa ff ff       	call   17580 <_ZNSt7__cxx1112basic_stringIcSt11char_traitsIcESaIcEED1Ev@plt>
   17b26:	eb 03                	jmp    17b2b <_ZL15companyCallbackPviPPcS1_+0x1cc>
   17b28:	48 89 c3             	mov    %rax,%rbx
   17b2b:	48 8d 45 bf          	lea    -0x41(%rbp),%rax
   17b2f:	48 89 c7             	mov    %rax,%rdi
   17b32:	e8 c9 f7 ff ff       	call   17300 <_ZNSaIcED1Ev@plt>
   17b37:	48 89 d8             	mov    %rbx,%rax
   17b3a:	48 89 c7             	mov    %rax,%rdi
   17b3d:	e8 be f9 ff ff       	call   17500 <_Unwind_Resume@plt>
   17b42:	e8 e9 f7 ff ff       	call   17330 <__stack_chk_fail@plt>
   17b47:	48 8b 5d f8          	mov    -0x8(%rbp),%rbx
   17b4b:	c9                   	leave  
   17b4c:	c3                   	ret    

0000000000017b4d <_ZL13offerCallbackPviPPcS1_>:
   17b4d:	55                   	push   %rbp
   17b4e:	48 89 e5             	mov    %rsp,%rbp
   17b51:	53                   	push   %rbx
   17b52:	48 81 ec b8 01 00 00 	sub    $0x1b8,%rsp
   17b59:	48 89 bd 58 fe ff ff 	mov    %rdi,-0x1a8(%rbp)
   17b60:	89 b5 54 fe ff ff    	mov    %esi,-0x1ac(%rbp)
   17b66:	48 89 95 48 fe ff ff 	mov    %rdx,-0x1b8(%rbp)
   17b6d:	48 89 8d 40 fe ff ff 	mov    %rcx,-0x1c0(%rbp)
   17b74:	64 48 8b 04 25 28 00 	mov    %fs:0x28,%rax
   17b7b:	00 00 
   17b7d:	48 89 45 e8          	mov    %rax,-0x18(%rbp)
   17b81:	31 c0                	xor    %eax,%eax
   17b83:	48 c7 85 70 fe ff ff 	movq   $0x0,-0x190(%rbp)
   17b8a:	00 00 00 00 
   17b8e:	48 c7 85 78 fe ff ff 	movq   $0x0,-0x188(%rbp)
   17b95:	00 00 00 00 
   17b99:	48 c7 85 80 fe ff ff 	movq   $0x0,-0x180(%rbp)
   17ba0:	00 00 00 00 
   17ba4:	48 8d 85 70 fe ff ff 	lea    -0x190(%rbp),%rax
   17bab:	48 89 c7             	mov    %rax,%rdi
   17bae:	e8 93 7e 00 00       	call   1fa46 <_ZNSt6vectorI7CollegeSaIS0_EEC1Ev>
   17bb3:	48 8d 85 90 fe ff ff 	lea    -0x170(%rbp),%rax
   17bba:	48 89 c7             	mov    %rax,%rdi
   17bbd:	e8 4a 28 01 00       	call   2a40c <_ZN11EligibilityC1Ev>
   17bc2:	48 8d 85 64 fe ff ff 	lea    -0x19c(%rbp),%rax
   17bc9:	b9 01 00 00 00       	mov    $0x1,%ecx
   17bce:	ba 01 00 00 00       	mov    $0x1,%edx
   17bd3:	be 01 00 00 00       	mov    $0x1,%esi
   17bd8:	48 89 c7             	mov    %rax,%rdi
   17bdb:	e8 02 26 01 00       	call   2a1e2 <_ZN4DateC1Eiii>
   17be0:	48 8b 85 48 fe ff ff 	mov    -0x1b8(%rbp),%rax
   17be7:	48 83 c0 28          	add    $0x28,%rax
   17beb:	48 8b 00             	mov    (%rax),%rax
   17bee:	48 89 c7             	mov    %rax,%rdi
   17bf1:	e8 aa f7 ff ff       	call   173a0 <atof@plt>
   17bf6:	66 0f ef d2          	pxor   %xmm2,%xmm2
   17bfa:	f2 0f 5a d0          	cvtsd2ss %xmm0,%xmm2
   17bfe:	f3 0f 11 95 50 fe ff 	movss  %xmm2,-0x1b0(%rbp)
   17c05:	ff 
   17c06:	48 8b 85 48 fe ff ff 	mov    -0x1b8(%rbp),%rax
   17c0d:	48 83 c0 08          	add    $0x8,%rax
   17c11:	48 8b 00             	mov    (%rax),%rax
   17c14:	48 89 c7             	mov    %rax,%rdi
   17c17:	e8 84 f7 ff ff       	call   173a0 <atof@plt>
   17c1c:	66 0f ef db          	pxor   %xmm3,%xmm3
   17c20:	f2 0f 5a d8          	cvtsd2ss %xmm0,%xmm3
   17c24:	66 0f 7e db          	movd   %xmm3,%ebx
   17c28:	48 8d 85 63 fe ff ff 	lea    -0x19d(%rbp),%rax
   17c2f:	48 89 c7             	mov    %rax,%rdi
   17c32:	e8 d9 f8 ff ff       	call   17510 <_ZNSaIcEC1Ev@plt>
   17c37:	48 8b 85 48 fe ff ff 	mov    -0x1b8(%rbp),%rax
   17c3e:	48 83 c0 10          	add    $0x10,%rax
   17c42:	48 8b 08             	mov    (%rax),%rcx
   17c45:	48 8d 95 63 fe ff ff 	lea    -0x19d(%rbp),%rdx
   17c4c:	48 8d 85 00 ff ff ff 	lea    -0x100(%rbp),%rax
   17c53:	48 89 ce             	mov    %rcx,%rsi
   17c56:	48 89 c7             	mov    %rax,%rdi
   17c59:	e8 06 86 00 00       	call   20264 <_ZNSt7__cxx1112basic_stringIcSt11char_traitsIcESaIcEEC1IS3_EEPKcRKS3_>
   17c5e:	48 8d 85 62 fe ff ff 	lea    -0x19e(%rbp),%rax
   17c65:	48 89 c7             	mov    %rax,%rdi
   17c68:	e8 a3 f8 ff ff       	call   17510 <_ZNSaIcEC1Ev@plt>
   17c6d:	48 8b 85 48 fe ff ff 	mov    -0x1b8(%rbp),%rax
   17c74:	48 83 c0 18          	add    $0x18,%rax
   17c78:	48 8b 08             	mov    (%rax),%rcx
   17c7b:	48 8d 95 62 fe ff ff 	lea    -0x19e(%rbp),%rdx
   17c82:	48 8d 85 e0 fe ff ff 	lea    -0x120(%rbp),%rax
   17c89:	48 89 ce             	mov    %rcx,%rsi
   17c8c:	48 89 c7             	mov    %rax,%rdi
   17c8f:	e8 d0 85 00 00       	call   20264 <_ZNSt7__cxx1112basic_stringIcSt11char_traitsIcESaIcEEC1IS3_EEPKcRKS3_>
   17c94:	48 8b 85 48 fe ff ff 	mov    -0x1b8(%rbp),%rax
   17c9b:	48 8b 00             	mov    (%rax),%rax
   17c9e:	48 89 c7             	mov    %rax,%rdi
   17ca1:	e8 ca f7 ff ff       	call   17470 <atoi@plt>
   17ca6:	41 89 c2             	mov    %eax,%r10d
   17ca9:	48 8b 85 64 fe ff ff 	mov    -0x19c(%rbp),%rax
   17cb0:	8b 8d 6c fe ff ff    	mov    -0x194(%rbp),%ecx
   17cb6:	48 89 ca             	mov    %rcx,%rdx
   17cb9:	48 8d 8d 00 ff ff ff 	lea    -0x100(%rbp),%rcx
   17cc0:	48 8d b5 e0 fe ff ff 	lea    -0x120(%rbp),%rsi
   17cc7:	48 8d bd 20 ff ff ff 	lea    -0xe0(%rbp),%rdi
   17cce:	4c 8d 85 70 fe ff ff 	lea    -0x190(%rbp),%r8
   17cd5:	41 50                	push   %r8
   17cd7:	4c 8d 85 90 fe ff ff 	lea    -0x170(%rbp),%r8
   17cde:	41 50                	push   %r8
   17ce0:	49 89 c0             	mov    %rax,%r8
   17ce3:	49 89 d1             	mov    %rdx,%r9
   17ce6:	f3 0f 10 8d 50 fe ff 	movss  -0x1b0(%rbp),%xmm1
   17ced:	ff 
   17cee:	66 0f 6e c3          	movd   %ebx,%xmm0
   17cf2:	48 89 f2             	mov    %rsi,%rdx
   17cf5:	44 89 d6             	mov    %r10d,%esi
   17cf8:	e8 29 4b 01 00       	call   2c826 <_ZN5OfferC1EiNSt7__cxx1112basic_stringIcSt11char_traitsIcESaIcEEES5_ff4DateRK11EligibilitySt6vectorI7CollegeSaISB_EE>
   17cfd:	48 83 c4 10          	add    $0x10,%rsp
   17d01:	48 8d 95 20 ff ff ff 	lea    -0xe0(%rbp),%rdx
   17d08:	48 8b 85 58 fe ff ff 	mov    -0x1a8(%rbp),%rax
   17d0f:	48 89 d6             	mov    %rdx,%rsi
   17d12:	48 89 c7             	mov    %rax,%rdi
   17d15:	e8 e4 f7 00 00       	call   274fe <_ZN7Company8setOfferE5Offer>
   17d1a:	48 8d 85 20 ff ff ff 	lea    -0xe0(%rbp),%rax
   17d21:	48 89 c7             	mov    %rax,%rdi
   17d24:	e8 39 7d 00 00       	call   1fa62 <_ZN5OfferD1Ev>
   17d29:	48 8d 85 e0 fe ff ff 	lea    -0x120(%rbp),%rax
   17d30:	48 89 c7             	mov    %rax,%rdi
   17d33:	e8 48 f8 ff ff       	call   17580 <_ZNSt7__cxx1112basic_stringIcSt11char_traitsIcESaIcEED1Ev@plt>
   17d38:	48 8d 85 62 fe ff ff 	lea    -0x19e(%rbp),%rax
   17d3f:	48 89 c7             	mov    %rax,%rdi
   17d42:	e8 b9 f5 ff ff       	call   17300 <_ZNSaIcED1Ev@plt>
   17d47:	48 8d 85 00 ff ff ff 	lea    -0x100(%rbp),%rax
   17d4e:	48 89 c7             	mov    %rax,%rdi
   17d51:	e8 2a f8 ff ff       	call   17580 <_ZNSt7__cxx1112basic_stringIcSt11char_traitsIcESaIcEED1Ev@plt>
   17d56:	48 8d 85 63 fe ff ff 	lea    -0x19d(%rbp),%rax
   17d5d:	48 89 c7             	mov    %rax,%rdi
   17d60:	e8 9b f5 ff ff       	call   17300 <_ZNSaIcED1Ev@plt>
   17d65:	48 8d 85 90 fe ff ff 	lea    -0x170(%rbp),%rax
   17d6c:	48 89 c7             	mov    %rax,%rdi
   17d6f:	e8 7a 7c 00 00       	call   1f9ee <_ZN11EligibilityD1Ev>
   17d74:	48 8d 85 70 fe ff ff 	lea    -0x190(%rbp),%rax
   17d7b:	48 89 c7             	mov    %rax,%rdi
   17d7e:	e8 6d 86 00 00       	call   203f0 <_ZNSt6vectorI7CollegeSaIS0_EED1Ev>
   17d83:	b8 00 00 00 00       	mov    $0x0,%eax
   17d88:	48 8b 55 e8          	mov    -0x18(%rbp),%rdx
   17d8c:	64 48 2b 14 25 28 00 	sub    %fs:0x28,%rdx
   17d93:	00 00 
   17d95:	0f 84 9a 00 00 00    	je     17e35 <_ZL13offerCallbackPviPPcS1_+0x2e8>
   17d9b:	e9 90 00 00 00       	jmp    17e30 <_ZL13offerCallbackPviPPcS1_+0x2e3>
   17da0:	48 89 c3             	mov    %rax,%rbx
   17da3:	48 8d 85 20 ff ff ff 	lea    -0xe0(%rbp),%rax
   17daa:	48 89 c7             	mov    %rax,%rdi
   17dad:	e8 b0 7c 00 00       	call   1fa62 <_ZN5OfferD1Ev>
   17db2:	eb 03                	jmp    17db7 <_ZL13offerCallbackPviPPcS1_+0x26a>
   17db4:	48 89 c3             	mov    %rax,%rbx
   17db7:	48 8d 85 e0 fe ff ff 	lea    -0x120(%rbp),%rax
   17dbe:	48 89 c7             	mov    %rax,%rdi
   17dc1:	e8 ba f7 ff ff       	call   17580 <_ZNSt7__cxx1112basic_stringIcSt11char_traitsIcESaIcEED1Ev@plt>
   17dc6:	eb 03                	jmp    17dcb <_ZL13offerCallbackPviPPcS1_+0x27e>
   17dc8:	48 89 c3             	mov    %rax,%rbx
   17dcb:	48 8d 85 62 fe ff ff 	lea    -0x19e(%rbp),%rax
   17dd2:	48 89 c7             	mov    %rax,%rdi
   17dd5:	e8 26 f5 ff ff       	call   17300 <_ZNSaIcED1Ev@plt>
   17dda:	48 8d 85 00 ff ff ff 	lea    -0x100(%rbp),%rax
   17de1:	48 89 c7             	mov    %rax,%rdi
   17de4:	e8 97 f7 ff ff       	call   17580 <_ZNSt7__cxx1112basic_stringIcSt11char_traitsIcESaIcEED1Ev@plt>
   17de9:	eb 03                	jmp    17dee <_ZL13offerCallbackPviPPcS1_+0x2a1>
   17deb:	48 89 c3             	mov    %rax,%rbx
   17dee:	48 8d 85 63 fe ff ff 	lea    -0x19d(%rbp),%rax
   17df5:	48 89 c7             	mov    %rax,%rdi
   17df8:	e8 03 f5 ff ff       	call   17300 <_ZNSaIcED1Ev@plt>
   17dfd:	eb 03                	jmp    17e02 <_ZL13offerCallbackPviPPcS1_+0x2b5>
   17dff:	48 89 c3             	mov    %rax,%rbx
   17e02:	48 8d 85 90 fe ff ff 	lea    -0x170(%rbp),%rax
   17e09:	48 89 c7             	mov    %rax,%rdi
   17e0c:	e8 dd 7b 00 00       	call   1f9ee <_ZN11EligibilityD1Ev>
   17e11:	eb 03                	jmp    17e16 <_ZL13offerCallbackPviPPcS1_+0x2c9>
   17e13:	48 89 c3             	mov    %rax,%rbx
   17e16:	48 8d 85 70 fe ff ff 	lea    -0x190(%rbp),%rax
   17e1d:	48 89 c7             	mov    %rax,%rdi
   17e20:	e8 cb 85 00 00       	call   203f0 <_ZNSt6vectorI7CollegeSaIS0_EED1Ev>
   17e25:	48 89 d8             	mov    %rbx,%rax
   17e28:	48 89 c7             	mov    %rax,%rdi
   17e2b:	e8 d0 f6 ff ff       	call   17500 <_Unwind_Resume@plt>
   17e30:	e8 fb f4 ff ff       	call   17330 <__stack_chk_fail@plt>
   17e35:	48 8b 5d f8          	mov    -0x8(%rbp),%rbx
   17e39:	c9                   	leave  
   17e3a:	c3                   	ret    

0000000000017e3b <_ZL15collegeCallbackPviPPcS1_>:
   17e3b:	55                   	push   %rbp
   17e3c:	48 89 e5             	mov    %rsp,%rbp
   17e3f:	41 54                	push   %r12
   17e41:	53                   	push   %rbx
   17e42:	48 81 ec 40 01 00 00 	sub    $0x140,%rsp
   17e49:	48 89 bd c8 fe ff ff 	mov    %rdi,-0x138(%rbp)
   17e50:	89 b5 c4 fe ff ff    	mov    %esi,-0x13c(%rbp)
   17e56:	48 89 95 b8 fe ff ff 	mov    %rdx,-0x148(%rbp)
   17e5d:	48 89 8d b0 fe ff ff 	mov    %rcx,-0x150(%rbp)
   17e64:	64 48 8b 04 25 28 00 	mov    %fs:0x28,%rax
   17e6b:	00 00 
   17e6d:	48 89 45 e8          	mov    %rax,-0x18(%rbp)
   17e71:	31 c0                	xor    %eax,%eax
   17e73:	48 8b 85 b8 fe ff ff 	mov    -0x148(%rbp),%rax
   17e7a:	48 83 c0 20          	add    $0x20,%rax
   17e7e:	48 8b 00             	mov    (%rax),%rax
   17e81:	48 89 c7             	mov    %rax,%rdi
   17e84:	e8 e7 f5 ff ff       	call   17470 <atoi@plt>
   17e89:	89 c2                	mov    %eax,%edx
   17e8b:	48 8b 85 c8 fe ff ff 	mov    -0x138(%rbp),%rax
   17e92:	89 d6                	mov    %edx,%esi
   17e94:	48 89 c7             	mov    %rax,%rdi
   17e97:	e8 ed f7 ff ff       	call   17689 <_Z13getIndexOfferR7Companyi>
   17e9c:	89 85 dc fe ff ff    	mov    %eax,-0x124(%rbp)
   17ea2:	48 8b 85 c8 fe ff ff 	mov    -0x138(%rbp),%rax
   17ea9:	48 89 c7             	mov    %rax,%rdi
   17eac:	e8 01 f7 00 00       	call   275b2 <_ZN7Company9getOffersEv>
   17eb1:	48 89 c2             	mov    %rax,%rdx
   17eb4:	8b 85 dc fe ff ff    	mov    -0x124(%rbp),%eax
   17eba:	48 98                	cltq   
   17ebc:	48 89 c6             	mov    %rax,%rsi
   17ebf:	48 89 d7             	mov    %rdx,%rdi
   17ec2:	e8 71 82 00 00       	call   20138 <_ZNSt6vectorI5OfferSaIS0_EE2atEm>
   17ec7:	48 89 c3             	mov    %rax,%rbx
   17eca:	48 c7 85 e0 fe ff ff 	movq   $0x0,-0x120(%rbp)
   17ed1:	00 00 00 00 
   17ed5:	48 c7 85 e8 fe ff ff 	movq   $0x0,-0x118(%rbp)
   17edc:	00 00 00 00 
   17ee0:	48 c7 85 f0 fe ff ff 	movq   $0x0,-0x110(%rbp)
   17ee7:	00 00 00 00 
   17eeb:	48 8d 85 e0 fe ff ff 	lea    -0x120(%rbp),%rax
   17ef2:	48 89 c7             	mov    %rax,%rdi
   17ef5:	e8 f2 7b 00 00       	call   1faec <_ZNSt6vectorI7StudentSaIS0_EEC1Ev>
   17efa:	48 8d 85 db fe ff ff 	lea    -0x125(%rbp),%rax
   17f01:	48 89 c7             	mov    %rax,%rdi
   17f04:	e8 07 f6 ff ff       	call   17510 <_ZNSaIcEC1Ev@plt>
   17f09:	48 8b 85 b8 fe ff ff 	mov    -0x148(%rbp),%rax
   17f10:	48 83 c0 10          	add    $0x10,%rax
   17f14:	48 8b 08             	mov    (%rax),%rcx
   17f17:	48 8d 95 db fe ff ff 	lea    -0x125(%rbp),%rdx
   17f1e:	48 8d 85 40 ff ff ff 	lea    -0xc0(%rbp),%rax
   17f25:	48 89 ce             	mov    %rcx,%rsi
   17f28:	48 89 c7             	mov    %rax,%rdi
   17f2b:	e8 34 83 00 00       	call   20264 <_ZNSt7__cxx1112basic_stringIcSt11char_traitsIcESaIcEEC1IS3_EEPKcRKS3_>
   17f30:	48 8d 85 da fe ff ff 	lea    -0x126(%rbp),%rax
   17f37:	48 89 c7             	mov    %rax,%rdi
   17f3a:	e8 d1 f5 ff ff       	call   17510 <_ZNSaIcEC1Ev@plt>
   17f3f:	48 8b 85 b8 fe ff ff 	mov    -0x148(%rbp),%rax
   17f46:	48 83 c0 18          	add    $0x18,%rax
   17f4a:	48 8b 08             	mov    (%rax),%rcx
   17f4d:	48 8d 95 da fe ff ff 	lea    -0x126(%rbp),%rdx
   17f54:	48 8d 85 20 ff ff ff 	lea    -0xe0(%rbp),%rax
   17f5b:	48 89 ce             	mov    %rcx,%rsi
   17f5e:	48 89 c7             	mov    %rax,%rdi
   17f61:	e8 fe 82 00 00       	call   20264 <_ZNSt7__cxx1112basic_stringIcSt11char_traitsIcESaIcEEC1IS3_EEPKcRKS3_>
   17f66:	48 8b 85 b8 fe ff ff 	mov    -0x148(%rbp),%rax
   17f6d:	48 83 c0 28          	add    $0x28,%rax
   17f71:	48 8b 00             	mov    (%rax),%rax
   17f74:	48 89 c7             	mov    %rax,%rdi
   17f77:	e8 f4 f4 ff ff       	call   17470 <atoi@plt>
   17f7c:	41 89 c4             	mov    %eax,%r12d
   17f7f:	48 8d 85 d9 fe ff ff 	lea    -0x127(%rbp),%rax
   17f86:	48 89 c7             	mov    %rax,%rdi
   17f89:	e8 82 f5 ff ff       	call   17510 <_ZNSaIcEC1Ev@plt>
   17f8e:	48 8b 85 b8 fe ff ff 	mov    -0x148(%rbp),%rax
   17f95:	48 83 c0 08          	add    $0x8,%rax
   17f99:	48 8b 08             	mov    (%rax),%rcx
   17f9c:	48 8d 95 d9 fe ff ff 	lea    -0x127(%rbp),%rdx
   17fa3:	48 8d 85 00 ff ff ff 	lea    -0x100(%rbp),%rax
   17faa:	48 89 ce             	mov    %rcx,%rsi
   17fad:	48 89 c7             	mov    %rax,%rdi
   17fb0:	e8 af 82 00 00       	call   20264 <_ZNSt7__cxx1112basic_stringIcSt11char_traitsIcESaIcEEC1IS3_EEPKcRKS3_>
   17fb5:	48 8b 85 b8 fe ff ff 	mov    -0x148(%rbp),%rax
   17fbc:	48 8b 00             	mov    (%rax),%rax
   17fbf:	48 89 c7             	mov    %rax,%rdi
   17fc2:	e8 a9 f4 ff ff       	call   17470 <atoi@plt>
   17fc7:	89 c6                	mov    %eax,%esi
   17fc9:	4c 8d 85 40 ff ff ff 	lea    -0xc0(%rbp),%r8
   17fd0:	48 8d bd 20 ff ff ff 	lea    -0xe0(%rbp),%rdi
   17fd7:	48 8d 95 00 ff ff ff 	lea    -0x100(%rbp),%rdx
   17fde:	48 8d 85 60 ff ff ff 	lea    -0xa0(%rbp),%rax
   17fe5:	48 83 ec 08          	sub    $0x8,%rsp
   17fe9:	48 8d 8d e0 fe ff ff 	lea    -0x120(%rbp),%rcx
   17ff0:	51                   	push   %rcx
   17ff1:	4d 89 c1             	mov    %r8,%r9
   17ff4:	49 89 f8             	mov    %rdi,%r8
   17ff7:	44 89 e1             	mov    %r12d,%ecx
   17ffa:	48 89 c7             	mov    %rax,%rdi
   17ffd:	e8 9c a2 00 00       	call   2229e <_ZN7CollegeC1EiNSt7__cxx1112basic_stringIcSt11char_traitsIcESaIcEEEiS5_S5_St6vectorI7StudentSaIS7_EE>
   18002:	48 83 c4 10          	add    $0x10,%rsp
   18006:	48 8d 85 60 ff ff ff 	lea    -0xa0(%rbp),%rax
   1800d:	48 89 c6             	mov    %rax,%rsi
   18010:	48 89 df             	mov    %rbx,%rdi
   18013:	e8 72 4b 01 00       	call   2cb8a <_ZN5Offer10addCollegeE7College>
   18018:	48 8d 85 60 ff ff ff 	lea    -0xa0(%rbp),%rax
   1801f:	48 89 c7             	mov    %rax,%rdi
   18022:	e8 e1 7a 00 00       	call   1fb08 <_ZN7CollegeD1Ev>
   18027:	48 8d 85 00 ff ff ff 	lea    -0x100(%rbp),%rax
   1802e:	48 89 c7             	mov    %rax,%rdi
   18031:	e8 4a f5 ff ff       	call   17580 <_ZNSt7__cxx1112basic_stringIcSt11char_traitsIcESaIcEED1Ev@plt>
   18036:	48 8d 85 d9 fe ff ff 	lea    -0x127(%rbp),%rax
   1803d:	48 89 c7             	mov    %rax,%rdi
   18040:	e8 bb f2 ff ff       	call   17300 <_ZNSaIcED1Ev@plt>
   18045:	48 8d 85 20 ff ff ff 	lea    -0xe0(%rbp),%rax
   1804c:	48 89 c7             	mov    %rax,%rdi
   1804f:	e8 2c f5 ff ff       	call   17580 <_ZNSt7__cxx1112basic_stringIcSt11char_traitsIcESaIcEED1Ev@plt>
   18054:	48 8d 85 da fe ff ff 	lea    -0x126(%rbp),%rax
   1805b:	48 89 c7             	mov    %rax,%rdi
   1805e:	e8 9d f2 ff ff       	call   17300 <_ZNSaIcED1Ev@plt>
   18063:	48 8d 85 40 ff ff ff 	lea    -0xc0(%rbp),%rax
   1806a:	48 89 c7             	mov    %rax,%rdi
   1806d:	e8 0e f5 ff ff       	call   17580 <_ZNSt7__cxx1112basic_stringIcSt11char_traitsIcESaIcEED1Ev@plt>
   18072:	48 8d 85 db fe ff ff 	lea    -0x125(%rbp),%rax
   18079:	48 89 c7             	mov    %rax,%rdi
   1807c:	e8 7f f2 ff ff       	call   17300 <_ZNSaIcED1Ev@plt>
   18081:	48 8d 85 e0 fe ff ff 	lea    -0x120(%rbp),%rax
   18088:	48 89 c7             	mov    %rax,%rdi
   1808b:	e8 46 84 00 00       	call   204d6 <_ZNSt6vectorI7StudentSaIS0_EED1Ev>
   18090:	b8 00 00 00 00       	mov    $0x0,%eax
   18095:	48 8b 55 e8          	mov    -0x18(%rbp),%rdx
   18099:	64 48 2b 14 25 28 00 	sub    %fs:0x28,%rdx
   180a0:	00 00 
   180a2:	0f 84 a4 00 00 00    	je     1814c <_ZL15collegeCallbackPviPPcS1_+0x311>
   180a8:	e9 9a 00 00 00       	jmp    18147 <_ZL15collegeCallbackPviPPcS1_+0x30c>
   180ad:	48 89 c3             	mov    %rax,%rbx
   180b0:	48 8d 85 60 ff ff ff 	lea    -0xa0(%rbp),%rax
   180b7:	48 89 c7             	mov    %rax,%rdi
   180ba:	e8 49 7a 00 00       	call   1fb08 <_ZN7CollegeD1Ev>
   180bf:	eb 03                	jmp    180c4 <_ZL15collegeCallbackPviPPcS1_+0x289>
   180c1:	48 89 c3             	mov    %rax,%rbx
   180c4:	48 8d 85 00 ff ff ff 	lea    -0x100(%rbp),%rax
   180cb:	48 89 c7             	mov    %rax,%rdi
   180ce:	e8 ad f4 ff ff       	call   17580 <_ZNSt7__cxx1112basic_stringIcSt11char_traitsIcESaIcEED1Ev@plt>
   180d3:	eb 03                	jmp    180d8 <_ZL15collegeCallbackPviPPcS1_+0x29d>
   180d5:	48 89 c3             	mov    %rax,%rbx
   180d8:	48 8d 85 d9 fe ff ff 	lea    -0x127(%rbp),%rax
   180df:	48 89 c7             	mov    %rax,%rdi
   180e2:	e8 19 f2 ff ff       	call   17300 <_ZNSaIcED1Ev@plt>
   180e7:	48 8d 85 20 ff ff ff 	lea    -0xe0(%rbp),%rax
   180ee:	48 89 c7             	mov    %rax,%rdi
   180f1:	e8 8a f4 ff ff       	call   17580 <_ZNSt7__cxx1112basic_stringIcSt11char_traitsIcESaIcEED1Ev@plt>
   180f6:	eb 03                	jmp    180fb <_ZL15collegeCallbackPviPPcS1_+0x2c0>
   180f8:	48 89 c3             	mov    %rax,%rbx
   180fb:	48 8d 85 da fe ff ff 	lea    -0x126(%rbp),%rax
   18102:	48 89 c7             	mov    %rax,%rdi
   18105:	e8 f6 f1 ff ff       	call   17300 <_ZNSaIcED1Ev@plt>
   1810a:	48 8d 85 40 ff ff ff 	lea    -0xc0(%rbp),%rax
   18111:	48 89 c7             	mov    %rax,%rdi
   18114:	e8 67 f4 ff ff       	call   17580 <_ZNSt7__cxx1112basic_stringIcSt11char_traitsIcESaIcEED1Ev@plt>
   18119:	eb 03                	jmp    1811e <_ZL15collegeCallbackPviPPcS1_+0x2e3>
   1811b:	48 89 c3             	mov    %rax,%rbx
   1811e:	48 8d 85 db fe ff ff 	lea    -0x125(%rbp),%rax
   18125:	48 89 c7             	mov    %rax,%rdi
   18128:	e8 d3 f1 ff ff       	call   17300 <_ZNSaIcED1Ev@plt>
   1812d:	48 8d 85 e0 fe ff ff 	lea    -0x120(%rbp),%rax
   18134:	48 89 c7             	mov    %rax,%rdi
   18137:	e8 9a 83 00 00       	call   204d6 <_ZNSt6vectorI7StudentSaIS0_EED1Ev>
   1813c:	48 89 d8             	mov    %rbx,%rax
   1813f:	48 89 c7             	mov    %rax,%rdi
   18142:	e8 b9 f3 ff ff       	call   17500 <_Unwind_Resume@plt>
   18147:	e8 e4 f1 ff ff       	call   17330 <__stack_chk_fail@plt>
   1814c:	48 8d 65 f0          	lea    -0x10(%rbp),%rsp
   18150:	5b                   	pop    %rbx
   18151:	41 5c                	pop    %r12
   18153:	5d                   	pop    %rbp
   18154:	c3                   	ret    

0000000000018155 <_ZL15studentCallbackPviPPcS1_>:
   18155:	55                   	push   %rbp
   18156:	48 89 e5             	mov    %rsp,%rbp
   18159:	41 54                	push   %r12
   1815b:	53                   	push   %rbx
   1815c:	48 81 ec 10 02 00 00 	sub    $0x210,%rsp
   18163:	48 89 bd f8 fd ff ff 	mov    %rdi,-0x208(%rbp)
   1816a:	89 b5 f4 fd ff ff    	mov    %esi,-0x20c(%rbp)
   18170:	48 89 95 e8 fd ff ff 	mov    %rdx,-0x218(%rbp)
   18177:	48 89 8d e0 fd ff ff 	mov    %rcx,-0x220(%rbp)
   1817e:	64 48 8b 04 25 28 00 	mov    %fs:0x28,%rax
   18185:	00 00 
   18187:	48 89 45 e8          	mov    %rax,-0x18(%rbp)
   1818b:	31 c0                	xor    %eax,%eax
   1818d:	8b 15 e1 94 02 00    	mov    0x294e1(%rip),%edx        # 41674 <offerId>
   18193:	48 8b 85 f8 fd ff ff 	mov    -0x208(%rbp),%rax
   1819a:	89 d6                	mov    %edx,%esi
   1819c:	48 89 c7             	mov    %rax,%rdi
   1819f:	e8 e5 f4 ff ff       	call   17689 <_Z13getIndexOfferR7Companyi>
   181a4:	89 85 0c fe ff ff    	mov    %eax,-0x1f4(%rbp)
   181aa:	48 8b 85 e8 fd ff ff 	mov    -0x218(%rbp),%rax
   181b1:	48 83 c0 38          	add    $0x38,%rax
   181b5:	48 8b 00             	mov    (%rax),%rax
   181b8:	48 89 c7             	mov    %rax,%rdi
   181bb:	e8 b0 f2 ff ff       	call   17470 <atoi@plt>
   181c0:	89 c2                	mov    %eax,%edx
   181c2:	8b 0d ac 94 02 00    	mov    0x294ac(%rip),%ecx        # 41674 <offerId>
   181c8:	48 8b 85 f8 fd ff ff 	mov    -0x208(%rbp),%rax
   181cf:	89 ce                	mov    %ecx,%esi
   181d1:	48 89 c7             	mov    %rax,%rdi
   181d4:	e8 32 f5 ff ff       	call   1770b <_Z15getIndexCollegeR7Companyii>
   181d9:	89 85 10 fe ff ff    	mov    %eax,-0x1f0(%rbp)
   181df:	83 bd 10 fe ff ff ff 	cmpl   $0xffffffff,-0x1f0(%rbp)
   181e6:	0f 84 60 02 00 00    	je     1844c <_ZL15studentCallbackPviPPcS1_+0x2f7>
   181ec:	48 8b 85 f8 fd ff ff 	mov    -0x208(%rbp),%rax
   181f3:	48 89 c7             	mov    %rax,%rdi
   181f6:	e8 b7 f3 00 00       	call   275b2 <_ZN7Company9getOffersEv>
   181fb:	48 89 c2             	mov    %rax,%rdx
   181fe:	8b 85 0c fe ff ff    	mov    -0x1f4(%rbp),%eax
   18204:	48 98                	cltq   
   18206:	48 89 c6             	mov    %rax,%rsi
   18209:	48 89 d7             	mov    %rdx,%rdi
   1820c:	e8 27 7f 00 00       	call   20138 <_ZNSt6vectorI5OfferSaIS0_EE2atEm>
   18211:	48 89 c7             	mov    %rax,%rdi
   18214:	e8 0d 51 01 00       	call   2d326 <_ZN5Offer10getCollegeEv>
   18219:	48 89 c2             	mov    %rax,%rdx
   1821c:	8b 85 10 fe ff ff    	mov    -0x1f0(%rbp),%eax
   18222:	48 98                	cltq   
   18224:	48 89 c6             	mov    %rax,%rsi
   18227:	48 89 d7             	mov    %rdx,%rdi
   1822a:	e8 9f 7f 00 00       	call   201ce <_ZNSt6vectorI7CollegeSaIS0_EE2atEm>
   1822f:	48 89 c3             	mov    %rax,%rbx
   18232:	48 8d 85 20 fe ff ff 	lea    -0x1e0(%rbp),%rax
   18239:	48 89 c7             	mov    %rax,%rdi
   1823c:	e8 cb 21 01 00       	call   2a40c <_ZN11EligibilityC1Ev>
   18241:	48 8d 85 0b fe ff ff 	lea    -0x1f5(%rbp),%rax
   18248:	48 89 c7             	mov    %rax,%rdi
   1824b:	e8 c0 f2 ff ff       	call   17510 <_ZNSaIcEC1Ev@plt>
   18250:	48 8b 85 e8 fd ff ff 	mov    -0x218(%rbp),%rax
   18257:	48 83 c0 28          	add    $0x28,%rax
   1825b:	48 8b 08             	mov    (%rax),%rcx
   1825e:	48 8d 95 0b fe ff ff 	lea    -0x1f5(%rbp),%rdx
   18265:	48 8d 85 d0 fe ff ff 	lea    -0x130(%rbp),%rax
   1826c:	48 89 ce             	mov    %rcx,%rsi
   1826f:	48 89 c7             	mov    %rax,%rdi
   18272:	e8 ed 7f 00 00       	call   20264 <_ZNSt7__cxx1112basic_stringIcSt11char_traitsIcESaIcEEC1IS3_EEPKcRKS3_>
   18277:	48 8d 85 14 fe ff ff 	lea    -0x1ec(%rbp),%rax
   1827e:	b9 04 00 00 00       	mov    $0x4,%ecx
   18283:	ba 04 00 00 00       	mov    $0x4,%edx
   18288:	be 04 00 00 00       	mov    $0x4,%esi
   1828d:	48 89 c7             	mov    %rax,%rdi
   18290:	e8 4d 1f 01 00       	call   2a1e2 <_ZN4DateC1Eiii>
   18295:	48 8d 85 0a fe ff ff 	lea    -0x1f6(%rbp),%rax
   1829c:	48 89 c7             	mov    %rax,%rdi
   1829f:	e8 6c f2 ff ff       	call   17510 <_ZNSaIcEC1Ev@plt>
   182a4:	48 8b 85 e8 fd ff ff 	mov    -0x218(%rbp),%rax
   182ab:	48 83 c0 20          	add    $0x20,%rax
   182af:	48 8b 08             	mov    (%rax),%rcx
   182b2:	48 8d 95 0a fe ff ff 	lea    -0x1f6(%rbp),%rdx
   182b9:	48 8d 85 b0 fe ff ff 	lea    -0x150(%rbp),%rax
   182c0:	48 89 ce             	mov    %rcx,%rsi
   182c3:	48 89 c7             	mov    %rax,%rdi
   182c6:	e8 99 7f 00 00       	call   20264 <_ZNSt7__cxx1112basic_stringIcSt11char_traitsIcESaIcEEC1IS3_EEPKcRKS3_>
   182cb:	48 8d 85 09 fe ff ff 	lea    -0x1f7(%rbp),%rax
   182d2:	48 89 c7             	mov    %rax,%rdi
   182d5:	e8 36 f2 ff ff       	call   17510 <_ZNSaIcEC1Ev@plt>
   182da:	48 8b 85 e8 fd ff ff 	mov    -0x218(%rbp),%rax
   182e1:	48 83 c0 18          	add    $0x18,%rax
   182e5:	48 8b 08             	mov    (%rax),%rcx
   182e8:	48 8d 95 09 fe ff ff 	lea    -0x1f7(%rbp),%rdx
   182ef:	48 8d 85 90 fe ff ff 	lea    -0x170(%rbp),%rax
   182f6:	48 89 ce             	mov    %rcx,%rsi
   182f9:	48 89 c7             	mov    %rax,%rdi
   182fc:	e8 63 7f 00 00       	call   20264 <_ZNSt7__cxx1112basic_stringIcSt11char_traitsIcESaIcEEC1IS3_EEPKcRKS3_>
   18301:	48 8b 85 e8 fd ff ff 	mov    -0x218(%rbp),%rax
   18308:	48 8b 00             	mov    (%rax),%rax
   1830b:	48 89 c7             	mov    %rax,%rdi
   1830e:	e8 5d f1 ff ff       	call   17470 <atoi@plt>
   18313:	41 89 c4             	mov    %eax,%r12d
   18316:	48 8d 85 08 fe ff ff 	lea    -0x1f8(%rbp),%rax
   1831d:	48 89 c7             	mov    %rax,%rdi
   18320:	e8 eb f1 ff ff       	call   17510 <_ZNSaIcEC1Ev@plt>
   18325:	48 8b 85 e8 fd ff ff 	mov    -0x218(%rbp),%rax
   1832c:	48 83 c0 08          	add    $0x8,%rax
   18330:	48 8b 08             	mov    (%rax),%rcx
   18333:	48 8d 95 08 fe ff ff 	lea    -0x1f8(%rbp),%rdx
   1833a:	48 8d 85 70 fe ff ff 	lea    -0x190(%rbp),%rax
   18341:	48 89 ce             	mov    %rcx,%rsi
   18344:	48 89 c7             	mov    %rax,%rdi
   18347:	e8 18 7f 00 00       	call   20264 <_ZNSt7__cxx1112basic_stringIcSt11char_traitsIcESaIcEEC1IS3_EEPKcRKS3_>
   1834c:	4c 8d 8d d0 fe ff ff 	lea    -0x130(%rbp),%r9
   18353:	4c 8d 85 b0 fe ff ff 	lea    -0x150(%rbp),%r8
   1835a:	48 8d 95 90 fe ff ff 	lea    -0x170(%rbp),%rdx
   18361:	48 8d b5 70 fe ff ff 	lea    -0x190(%rbp),%rsi
   18368:	48 8d bd f0 fe ff ff 	lea    -0x110(%rbp),%rdi
   1836f:	48 83 ec 08          	sub    $0x8,%rsp
   18373:	48 8d 85 20 fe ff ff 	lea    -0x1e0(%rbp),%rax
   1837a:	50                   	push   %rax
   1837b:	48 83 ec 10          	sub    $0x10,%rsp
   1837f:	48 89 e0             	mov    %rsp,%rax
   18382:	48 8b 8d 14 fe ff ff 	mov    -0x1ec(%rbp),%rcx
   18389:	48 89 08             	mov    %rcx,(%rax)
   1838c:	8b 8d 1c fe ff ff    	mov    -0x1e4(%rbp),%ecx
   18392:	89 48 08             	mov    %ecx,0x8(%rax)
   18395:	48 89 d1             	mov    %rdx,%rcx
   18398:	44 89 e2             	mov    %r12d,%edx
   1839b:	e8 ae 8c 01 00       	call   3104e <_ZN7StudentC1ENSt7__cxx1112basic_stringIcSt11char_traitsIcESaIcEEEiS5_S5_4DateS5_RK11Eligibility>
   183a0:	48 83 c4 20          	add    $0x20,%rsp
   183a4:	48 8d 85 f0 fe ff ff 	lea    -0x110(%rbp),%rax
   183ab:	48 89 c6             	mov    %rax,%rsi
   183ae:	48 89 df             	mov    %rbx,%rdi
   183b1:	e8 c4 9f 00 00       	call   2237a <_ZN7College10addStudentERK7Student>
   183b6:	48 8d 85 f0 fe ff ff 	lea    -0x110(%rbp),%rax
   183bd:	48 89 c7             	mov    %rax,%rdi
   183c0:	e8 93 77 00 00       	call   1fb58 <_ZN7StudentD1Ev>
   183c5:	48 8d 85 70 fe ff ff 	lea    -0x190(%rbp),%rax
   183cc:	48 89 c7             	mov    %rax,%rdi
   183cf:	e8 ac f1 ff ff       	call   17580 <_ZNSt7__cxx1112basic_stringIcSt11char_traitsIcESaIcEED1Ev@plt>
   183d4:	48 8d 85 08 fe ff ff 	lea    -0x1f8(%rbp),%rax
   183db:	48 89 c7             	mov    %rax,%rdi
   183de:	e8 1d ef ff ff       	call   17300 <_ZNSaIcED1Ev@plt>
   183e3:	48 8d 85 90 fe ff ff 	lea    -0x170(%rbp),%rax
   183ea:	48 89 c7             	mov    %rax,%rdi
   183ed:	e8 8e f1 ff ff       	call   17580 <_ZNSt7__cxx1112basic_stringIcSt11char_traitsIcESaIcEED1Ev@plt>
   183f2:	48 8d 85 09 fe ff ff 	lea    -0x1f7(%rbp),%rax
   183f9:	48 89 c7             	mov    %rax,%rdi
   183fc:	e8 ff ee ff ff       	call   17300 <_ZNSaIcED1Ev@plt>
   18401:	48 8d 85 b0 fe ff ff 	lea    -0x150(%rbp),%rax
   18408:	48 89 c7             	mov    %rax,%rdi
   1840b:	e8 70 f1 ff ff       	call   17580 <_ZNSt7__cxx1112basic_stringIcSt11char_traitsIcESaIcEED1Ev@plt>
   18410:	48 8d 85 0a fe ff ff 	lea    -0x1f6(%rbp),%rax
   18417:	48 89 c7             	mov    %rax,%rdi
   1841a:	e8 e1 ee ff ff       	call   17300 <_ZNSaIcED1Ev@plt>
   1841f:	48 8d 85 d0 fe ff ff 	lea    -0x130(%rbp),%rax
   18426:	48 89 c7             	mov    %rax,%rdi
   18429:	e8 52 f1 ff ff       	call   17580 <_ZNSt7__cxx1112basic_stringIcSt11char_traitsIcESaIcEED1Ev@plt>
   1842e:	48 8d 85 0b fe ff ff 	lea    -0x1f5(%rbp),%rax
   18435:	48 89 c7             	mov    %rax,%rdi
   18438:	e8 c3 ee ff ff       	call   17300 <_ZNSaIcED1Ev@plt>
   1843d:	48 8d 85 20 fe ff ff 	lea    -0x1e0(%rbp),%rax
   18444:	48 89 c7             	mov    %rax,%rdi
   18447:	e8 a2 75 00 00       	call   1f9ee <_ZN11EligibilityD1Ev>
   1844c:	b8 00 00 00 00       	mov    $0x0,%eax
   18451:	48 8b 55 e8          	mov    -0x18(%rbp),%rdx
   18455:	64 48 2b 14 25 28 00 	sub    %fs:0x28,%rdx
   1845c:	00 00 
   1845e:	0f 84 cc 00 00 00    	je     18530 <_ZL15studentCallbackPviPPcS1_+0x3db>
   18464:	e9 c2 00 00 00       	jmp    1852b <_ZL15studentCallbackPviPPcS1_+0x3d6>
   18469:	48 89 c3             	mov    %rax,%rbx
   1846c:	48 8d 85 f0 fe ff ff 	lea    -0x110(%rbp),%rax
   18473:	48 89 c7             	mov    %rax,%rdi
   18476:	e8 dd 76 00 00       	call   1fb58 <_ZN7StudentD1Ev>
   1847b:	eb 03                	jmp    18480 <_ZL15studentCallbackPviPPcS1_+0x32b>
   1847d:	48 89 c3             	mov    %rax,%rbx
   18480:	48 8d 85 70 fe ff ff 	lea    -0x190(%rbp),%rax
   18487:	48 89 c7             	mov    %rax,%rdi
   1848a:	e8 f1 f0 ff ff       	call   17580 <_ZNSt7__cxx1112basic_stringIcSt11char_traitsIcESaIcEED1Ev@plt>
   1848f:	eb 03                	jmp    18494 <_ZL15studentCallbackPviPPcS1_+0x33f>
   18491:	48 89 c3             	mov    %rax,%rbx
   18494:	48 8d 85 08 fe ff ff 	lea    -0x1f8(%rbp),%rax
   1849b:	48 89 c7             	mov    %rax,%rdi
   1849e:	e8 5d ee ff ff       	call   17300 <_ZNSaIcED1Ev@plt>
   184a3:	48 8d 85 90 fe ff ff 	lea    -0x170(%rbp),%rax
   184aa:	48 89 c7             	mov    %rax,%rdi
   184ad:	e8 ce f0 ff ff       	call   17580 <_ZNSt7__cxx1112basic_stringIcSt11char_traitsIcESaIcEED1Ev@plt>
   184b2:	eb 03                	jmp    184b7 <_ZL15studentCallbackPviPPcS1_+0x362>
   184b4:	48 89 c3             	mov    %rax,%rbx
   184b7:	48 8d 85 09 fe ff ff 	lea    -0x1f7(%rbp),%rax
   184be:	48 89 c7             	mov    %rax,%rdi
   184c1:	e8 3a ee ff ff       	call   17300 <_ZNSaIcED1Ev@plt>
   184c6:	48 8d 85 b0 fe ff ff 	lea    -0x150(%rbp),%rax
   184cd:	48 89 c7             	mov    %rax,%rdi
   184d0:	e8 ab f0 ff ff       	call   17580 <_ZNSt7__cxx1112basic_stringIcSt11char_traitsIcESaIcEED1Ev@plt>
   184d5:	eb 03                	jmp    184da <_ZL15studentCallbackPviPPcS1_+0x385>
   184d7:	48 89 c3             	mov    %rax,%rbx
   184da:	48 8d 85 0a fe ff ff 	lea    -0x1f6(%rbp),%rax
   184e1:	48 89 c7             	mov    %rax,%rdi
   184e4:	e8 17 ee ff ff       	call   17300 <_ZNSaIcED1Ev@plt>
   184e9:	eb 03                	jmp    184ee <_ZL15studentCallbackPviPPcS1_+0x399>
   184eb:	48 89 c3             	mov    %rax,%rbx
   184ee:	48 8d 85 d0 fe ff ff 	lea    -0x130(%rbp),%rax
   184f5:	48 89 c7             	mov    %rax,%rdi
   184f8:	e8 83 f0 ff ff       	call   17580 <_ZNSt7__cxx1112basic_stringIcSt11char_traitsIcESaIcEED1Ev@plt>
   184fd:	eb 03                	jmp    18502 <_ZL15studentCallbackPviPPcS1_+0x3ad>
   184ff:	48 89 c3             	mov    %rax,%rbx
   18502:	48 8d 85 0b fe ff ff 	lea    -0x1f5(%rbp),%rax
   18509:	48 89 c7             	mov    %rax,%rdi
   1850c:	e8 ef ed ff ff       	call   17300 <_ZNSaIcED1Ev@plt>
   18511:	48 8d 85 20 fe ff ff 	lea    -0x1e0(%rbp),%rax
   18518:	48 89 c7             	mov    %rax,%rdi
   1851b:	e8 ce 74 00 00       	call   1f9ee <_ZN11EligibilityD1Ev>
   18520:	48 89 d8             	mov    %rbx,%rax
   18523:	48 89 c7             	mov    %rax,%rdi
   18526:	e8 d5 ef ff ff       	call   17500 <_Unwind_Resume@plt>
   1852b:	e8 00 ee ff ff       	call   17330 <__stack_chk_fail@plt>
   18530:	48 8d 65 f0          	lea    -0x10(%rbp),%rsp
   18534:	5b                   	pop    %rbx
   18535:	41 5c                	pop    %r12
   18537:	5d                   	pop    %rbp
   18538:	c3                   	ret    

0000000000018539 <_ZL26studentEligibilityCallbackPviPPcS1_>:
   18539:	55                   	push   %rbp
   1853a:	48 89 e5             	mov    %rsp,%rbp
   1853d:	41 57                	push   %r15
   1853f:	41 56                	push   %r14
   18541:	41 55                	push   %r13
   18543:	41 54                	push   %r12
   18545:	53                   	push   %rbx
   18546:	48 81 ec b8 00 00 00 	sub    $0xb8,%rsp
   1854d:	48 89 bd 38 ff ff ff 	mov    %rdi,-0xc8(%rbp)
   18554:	89 b5 34 ff ff ff    	mov    %esi,-0xcc(%rbp)
   1855a:	48 89 95 28 ff ff ff 	mov    %rdx,-0xd8(%rbp)
   18561:	48 89 8d 20 ff ff ff 	mov    %rcx,-0xe0(%rbp)
   18568:	64 48 8b 04 25 28 00 	mov    %fs:0x28,%rax
   1856f:	00 00 
   18571:	48 89 45 c8          	mov    %rax,-0x38(%rbp)
   18575:	31 c0                	xor    %eax,%eax
   18577:	8b 15 f7 90 02 00    	mov    0x290f7(%rip),%edx        # 41674 <offerId>
   1857d:	48 8b 85 38 ff ff ff 	mov    -0xc8(%rbp),%rax
   18584:	89 d6                	mov    %edx,%esi
   18586:	48 89 c7             	mov    %rax,%rdi
   18589:	e8 fb f0 ff ff       	call   17689 <_Z13getIndexOfferR7Companyi>
   1858e:	89 85 44 ff ff ff    	mov    %eax,-0xbc(%rbp)
   18594:	8b 15 de 90 02 00    	mov    0x290de(%rip),%edx        # 41678 <collegeId>
   1859a:	8b 0d d4 90 02 00    	mov    0x290d4(%rip),%ecx        # 41674 <offerId>
   185a0:	48 8b 85 38 ff ff ff 	mov    -0xc8(%rbp),%rax
   185a7:	89 ce                	mov    %ecx,%esi
   185a9:	48 89 c7             	mov    %rax,%rdi
   185ac:	e8 5a f1 ff ff       	call   1770b <_Z15getIndexCollegeR7Companyii>
   185b1:	89 85 48 ff ff ff    	mov    %eax,-0xb8(%rbp)
   185b7:	48 8b 85 28 ff ff ff 	mov    -0xd8(%rbp),%rax
   185be:	48 83 c0 30          	add    $0x30,%rax
   185c2:	48 8b 00             	mov    (%rax),%rax
   185c5:	48 89 c7             	mov    %rax,%rdi
   185c8:	e8 a3 ee ff ff       	call   17470 <atoi@plt>
   185cd:	89 c1                	mov    %eax,%ecx
   185cf:	8b 15 a3 90 02 00    	mov    0x290a3(%rip),%edx        # 41678 <collegeId>
   185d5:	8b 35 99 90 02 00    	mov    0x29099(%rip),%esi        # 41674 <offerId>
   185db:	48 8b 85 38 ff ff ff 	mov    -0xc8(%rbp),%rax
   185e2:	48 89 c7             	mov    %rax,%rdi
   185e5:	e8 01 f2 ff ff       	call   177eb <_Z15getIndexStudentR7Companyiii>
   185ea:	89 85 4c ff ff ff    	mov    %eax,-0xb4(%rbp)
   185f0:	83 bd 4c ff ff ff ff 	cmpl   $0xffffffff,-0xb4(%rbp)
   185f7:	0f 84 6f 01 00 00    	je     1876c <_ZL26studentEligibilityCallbackPviPPcS1_+0x233>
   185fd:	48 8b 85 38 ff ff ff 	mov    -0xc8(%rbp),%rax
   18604:	48 89 c7             	mov    %rax,%rdi
   18607:	e8 a6 ef 00 00       	call   275b2 <_ZN7Company9getOffersEv>
   1860c:	48 89 c2             	mov    %rax,%rdx
   1860f:	8b 85 44 ff ff ff    	mov    -0xbc(%rbp),%eax
   18615:	48 98                	cltq   
   18617:	48 89 c6             	mov    %rax,%rsi
   1861a:	48 89 d7             	mov    %rdx,%rdi
   1861d:	e8 16 7b 00 00       	call   20138 <_ZNSt6vectorI5OfferSaIS0_EE2atEm>
   18622:	48 89 c7             	mov    %rax,%rdi
   18625:	e8 fc 4c 01 00       	call   2d326 <_ZN5Offer10getCollegeEv>
   1862a:	48 89 c2             	mov    %rax,%rdx
   1862d:	8b 85 48 ff ff ff    	mov    -0xb8(%rbp),%eax
   18633:	48 98                	cltq   
   18635:	48 89 c6             	mov    %rax,%rsi
   18638:	48 89 d7             	mov    %rdx,%rdi
   1863b:	e8 8e 7b 00 00       	call   201ce <_ZNSt6vectorI7CollegeSaIS0_EE2atEm>
   18640:	48 89 c7             	mov    %rax,%rdi
   18643:	e8 54 ab 00 00       	call   2319c <_ZN7College10getStudentEv>
   18648:	48 89 c2             	mov    %rax,%rdx
   1864b:	8b 85 4c ff ff ff    	mov    -0xb4(%rbp),%eax
   18651:	48 98                	cltq   
   18653:	48 89 c6             	mov    %rax,%rsi
   18656:	48 89 d7             	mov    %rdx,%rdi
   18659:	e8 00 7f 00 00       	call   2055e <_ZNSt6vectorI7StudentSaIS0_EE2atEm>
   1865e:	48 89 c3             	mov    %rax,%rbx
   18661:	48 8d 85 43 ff ff ff 	lea    -0xbd(%rbp),%rax
   18668:	48 89 c7             	mov    %rax,%rdi
   1866b:	e8 a0 ee ff ff       	call   17510 <_ZNSaIcEC1Ev@plt>
   18670:	48 8d 95 43 ff ff ff 	lea    -0xbd(%rbp),%rdx
   18677:	48 8d 45 a0          	lea    -0x60(%rbp),%rax
   1867b:	48 8d 0d 86 b9 01 00 	lea    0x1b986(%rip),%rcx        # 34008 <_IO_stdin_used+0x8>
   18682:	48 89 ce             	mov    %rcx,%rsi
   18685:	48 89 c7             	mov    %rax,%rdi
   18688:	e8 d7 7b 00 00       	call   20264 <_ZNSt7__cxx1112basic_stringIcSt11char_traitsIcESaIcEEC1IS3_EEPKcRKS3_>
   1868d:	48 8b 85 28 ff ff ff 	mov    -0xd8(%rbp),%rax
   18694:	48 83 c0 28          	add    $0x28,%rax
   18698:	48 8b 00             	mov    (%rax),%rax
   1869b:	48 89 c7             	mov    %rax,%rdi
   1869e:	e8 cd ed ff ff       	call   17470 <atoi@plt>
   186a3:	41 89 c7             	mov    %eax,%r15d
   186a6:	48 8b 85 28 ff ff ff 	mov    -0xd8(%rbp),%rax
   186ad:	48 83 c0 20          	add    $0x20,%rax
   186b1:	48 8b 00             	mov    (%rax),%rax
   186b4:	48 89 c7             	mov    %rax,%rdi
   186b7:	e8 b4 ed ff ff       	call   17470 <atoi@plt>
   186bc:	41 89 c6             	mov    %eax,%r14d
   186bf:	48 8b 85 28 ff ff ff 	mov    -0xd8(%rbp),%rax
   186c6:	48 83 c0 18          	add    $0x18,%rax
   186ca:	48 8b 00             	mov    (%rax),%rax
   186cd:	48 89 c7             	mov    %rax,%rdi
   186d0:	e8 9b ed ff ff       	call   17470 <atoi@plt>
   186d5:	41 89 c5             	mov    %eax,%r13d
   186d8:	48 8b 85 28 ff ff ff 	mov    -0xd8(%rbp),%rax
   186df:	48 83 c0 10          	add    $0x10,%rax
   186e3:	48 8b 00             	mov    (%rax),%rax
   186e6:	48 89 c7             	mov    %rax,%rdi
   186e9:	e8 82 ed ff ff       	call   17470 <atoi@plt>
   186ee:	41 89 c4             	mov    %eax,%r12d
   186f1:	48 8b 85 28 ff ff ff 	mov    -0xd8(%rbp),%rax
   186f8:	48 83 c0 08          	add    $0x8,%rax
   186fc:	48 8b 00             	mov    (%rax),%rax
   186ff:	48 89 c7             	mov    %rax,%rdi
   18702:	e8 99 ec ff ff       	call   173a0 <atof@plt>
   18707:	66 48 0f 7e c0       	movq   %xmm0,%rax
   1870c:	48 8d 55 a0          	lea    -0x60(%rbp),%rdx
   18710:	48 8d bd 50 ff ff ff 	lea    -0xb0(%rbp),%rdi
   18717:	49 89 d1             	mov    %rdx,%r9
   1871a:	45 89 f8             	mov    %r15d,%r8d
   1871d:	44 89 f1             	mov    %r14d,%ecx
   18720:	44 89 ea             	mov    %r13d,%edx
   18723:	44 89 e6             	mov    %r12d,%esi
   18726:	66 48 0f 6e c0       	movq   %rax,%xmm0
   1872b:	e8 66 1c 01 00       	call   2a396 <_ZN11EligibilityC1EdiiiiNSt7__cxx1112basic_stringIcSt11char_traitsIcESaIcEEE>
   18730:	48 8d 85 50 ff ff ff 	lea    -0xb0(%rbp),%rax
   18737:	48 89 c6             	mov    %rax,%rsi
   1873a:	48 89 df             	mov    %rbx,%rdi
   1873d:	e8 80 8c 01 00       	call   313c2 <_ZN7Student18setAcademicDetailsE11Eligibility>
   18742:	48 8d 85 50 ff ff ff 	lea    -0xb0(%rbp),%rax
   18749:	48 89 c7             	mov    %rax,%rdi
   1874c:	e8 9d 72 00 00       	call   1f9ee <_ZN11EligibilityD1Ev>
   18751:	48 8d 45 a0          	lea    -0x60(%rbp),%rax
   18755:	48 89 c7             	mov    %rax,%rdi
   18758:	e8 23 ee ff ff       	call   17580 <_ZNSt7__cxx1112basic_stringIcSt11char_traitsIcESaIcEED1Ev@plt>
   1875d:	48 8d 85 43 ff ff ff 	lea    -0xbd(%rbp),%rax
   18764:	48 89 c7             	mov    %rax,%rdi
   18767:	e8 94 eb ff ff       	call   17300 <_ZNSaIcED1Ev@plt>
   1876c:	b8 00 00 00 00       	mov    $0x0,%eax
   18771:	48 8b 55 c8          	mov    -0x38(%rbp),%rdx
   18775:	64 48 2b 14 25 28 00 	sub    %fs:0x28,%rdx
   1877c:	00 00 
   1877e:	74 49                	je     187c9 <_ZL26studentEligibilityCallbackPviPPcS1_+0x290>
   18780:	eb 42                	jmp    187c4 <_ZL26studentEligibilityCallbackPviPPcS1_+0x28b>
   18782:	48 89 c3             	mov    %rax,%rbx
   18785:	48 8d 85 50 ff ff ff 	lea    -0xb0(%rbp),%rax
   1878c:	48 89 c7             	mov    %rax,%rdi
   1878f:	e8 5a 72 00 00       	call   1f9ee <_ZN11EligibilityD1Ev>
   18794:	eb 03                	jmp    18799 <_ZL26studentEligibilityCallbackPviPPcS1_+0x260>
   18796:	48 89 c3             	mov    %rax,%rbx
   18799:	48 8d 45 a0          	lea    -0x60(%rbp),%rax
   1879d:	48 89 c7             	mov    %rax,%rdi
   187a0:	e8 db ed ff ff       	call   17580 <_ZNSt7__cxx1112basic_stringIcSt11char_traitsIcESaIcEED1Ev@plt>
   187a5:	eb 03                	jmp    187aa <_ZL26studentEligibilityCallbackPviPPcS1_+0x271>
   187a7:	48 89 c3             	mov    %rax,%rbx
   187aa:	48 8d 85 43 ff ff ff 	lea    -0xbd(%rbp),%rax
   187b1:	48 89 c7             	mov    %rax,%rdi
   187b4:	e8 47 eb ff ff       	call   17300 <_ZNSaIcED1Ev@plt>
   187b9:	48 89 d8             	mov    %rbx,%rax
   187bc:	48 89 c7             	mov    %rax,%rdi
   187bf:	e8 3c ed ff ff       	call   17500 <_Unwind_Resume@plt>
   187c4:	e8 67 eb ff ff       	call   17330 <__stack_chk_fail@plt>
   187c9:	48 81 c4 b8 00 00 00 	add    $0xb8,%rsp
   187d0:	5b                   	pop    %rbx
   187d1:	41 5c                	pop    %r12
   187d3:	41 5d                	pop    %r13
   187d5:	41 5e                	pop    %r14
   187d7:	41 5f                	pop    %r15
   187d9:	5d                   	pop    %rbp
   187da:	c3                   	ret    

00000000000187db <_ZL24offerEligibilityCallbackPviPPcS1_>:
   187db:	55                   	push   %rbp
   187dc:	48 89 e5             	mov    %rsp,%rbp
   187df:	41 57                	push   %r15
   187e1:	41 56                	push   %r14
   187e3:	41 55                	push   %r13
   187e5:	41 54                	push   %r12
   187e7:	53                   	push   %rbx
   187e8:	48 81 ec b8 00 00 00 	sub    $0xb8,%rsp
   187ef:	48 89 bd 38 ff ff ff 	mov    %rdi,-0xc8(%rbp)
   187f6:	89 b5 34 ff ff ff    	mov    %esi,-0xcc(%rbp)
   187fc:	48 89 95 28 ff ff ff 	mov    %rdx,-0xd8(%rbp)
   18803:	48 89 8d 20 ff ff ff 	mov    %rcx,-0xe0(%rbp)
   1880a:	64 48 8b 04 25 28 00 	mov    %fs:0x28,%rax
   18811:	00 00 
   18813:	48 89 45 c8          	mov    %rax,-0x38(%rbp)
   18817:	31 c0                	xor    %eax,%eax
   18819:	8b 15 55 8e 02 00    	mov    0x28e55(%rip),%edx        # 41674 <offerId>
   1881f:	48 8b 85 38 ff ff ff 	mov    -0xc8(%rbp),%rax
   18826:	89 d6                	mov    %edx,%esi
   18828:	48 89 c7             	mov    %rax,%rdi
   1882b:	e8 59 ee ff ff       	call   17689 <_Z13getIndexOfferR7Companyi>
   18830:	89 85 4c ff ff ff    	mov    %eax,-0xb4(%rbp)
   18836:	83 bd 4c ff ff ff ff 	cmpl   $0xffffffff,-0xb4(%rbp)
   1883d:	0f 84 33 01 00 00    	je     18976 <_ZL24offerEligibilityCallbackPviPPcS1_+0x19b>
   18843:	48 8b 85 38 ff ff ff 	mov    -0xc8(%rbp),%rax
   1884a:	48 89 c7             	mov    %rax,%rdi
   1884d:	e8 60 ed 00 00       	call   275b2 <_ZN7Company9getOffersEv>
   18852:	48 89 c2             	mov    %rax,%rdx
   18855:	8b 85 4c ff ff ff    	mov    -0xb4(%rbp),%eax
   1885b:	48 98                	cltq   
   1885d:	48 89 c6             	mov    %rax,%rsi
   18860:	48 89 d7             	mov    %rdx,%rdi
   18863:	e8 d0 78 00 00       	call   20138 <_ZNSt6vectorI5OfferSaIS0_EE2atEm>
   18868:	48 89 c3             	mov    %rax,%rbx
   1886b:	48 8d 85 4b ff ff ff 	lea    -0xb5(%rbp),%rax
   18872:	48 89 c7             	mov    %rax,%rdi
   18875:	e8 96 ec ff ff       	call   17510 <_ZNSaIcEC1Ev@plt>
   1887a:	48 8d 95 4b ff ff ff 	lea    -0xb5(%rbp),%rdx
   18881:	48 8d 45 a0          	lea    -0x60(%rbp),%rax
   18885:	48 8d 0d 7c b7 01 00 	lea    0x1b77c(%rip),%rcx        # 34008 <_IO_stdin_used+0x8>
   1888c:	48 89 ce             	mov    %rcx,%rsi
   1888f:	48 89 c7             	mov    %rax,%rdi
   18892:	e8 cd 79 00 00       	call   20264 <_ZNSt7__cxx1112basic_stringIcSt11char_traitsIcESaIcEEC1IS3_EEPKcRKS3_>
   18897:	48 8b 85 28 ff ff ff 	mov    -0xd8(%rbp),%rax
   1889e:	48 83 c0 28          	add    $0x28,%rax
   188a2:	48 8b 00             	mov    (%rax),%rax
   188a5:	48 89 c7             	mov    %rax,%rdi
   188a8:	e8 c3 eb ff ff       	call   17470 <atoi@plt>
   188ad:	41 89 c7             	mov    %eax,%r15d
   188b0:	48 8b 85 28 ff ff ff 	mov    -0xd8(%rbp),%rax
   188b7:	48 83 c0 20          	add    $0x20,%rax
   188bb:	48 8b 00             	mov    (%rax),%rax
   188be:	48 89 c7             	mov    %rax,%rdi
   188c1:	e8 aa eb ff ff       	call   17470 <atoi@plt>
   188c6:	41 89 c6             	mov    %eax,%r14d
   188c9:	48 8b 85 28 ff ff ff 	mov    -0xd8(%rbp),%rax
   188d0:	48 83 c0 18          	add    $0x18,%rax
   188d4:	48 8b 00             	mov    (%rax),%rax
   188d7:	48 89 c7             	mov    %rax,%rdi
   188da:	e8 91 eb ff ff       	call   17470 <atoi@plt>
   188df:	41 89 c5             	mov    %eax,%r13d
   188e2:	48 8b 85 28 ff ff ff 	mov    -0xd8(%rbp),%rax
   188e9:	48 83 c0 10          	add    $0x10,%rax
   188ed:	48 8b 00             	mov    (%rax),%rax
   188f0:	48 89 c7             	mov    %rax,%rdi
   188f3:	e8 78 eb ff ff       	call   17470 <atoi@plt>
   188f8:	41 89 c4             	mov    %eax,%r12d
   188fb:	48 8b 85 28 ff ff ff 	mov    -0xd8(%rbp),%rax
   18902:	48 83 c0 08          	add    $0x8,%rax
   18906:	48 8b 00             	mov    (%rax),%rax
   18909:	48 89 c7             	mov    %rax,%rdi
   1890c:	e8 8f ea ff ff       	call   173a0 <atof@plt>
   18911:	66 48 0f 7e c0       	movq   %xmm0,%rax
   18916:	48 8d 55 a0          	lea    -0x60(%rbp),%rdx
   1891a:	48 8d bd 50 ff ff ff 	lea    -0xb0(%rbp),%rdi
   18921:	49 89 d1             	mov    %rdx,%r9
   18924:	45 89 f8             	mov    %r15d,%r8d
   18927:	44 89 f1             	mov    %r14d,%ecx
   1892a:	44 89 ea             	mov    %r13d,%edx
   1892d:	44 89 e6             	mov    %r12d,%esi
   18930:	66 48 0f 6e c0       	movq   %rax,%xmm0
   18935:	e8 5c 1a 01 00       	call   2a396 <_ZN11EligibilityC1EdiiiiNSt7__cxx1112basic_stringIcSt11char_traitsIcESaIcEEE>
   1893a:	48 8d 85 50 ff ff ff 	lea    -0xb0(%rbp),%rax
   18941:	48 89 c6             	mov    %rax,%rsi
   18944:	48 89 df             	mov    %rbx,%rdi
   18947:	e8 b0 49 01 00       	call   2d2fc <_ZN5Offer14setEligibilityE11Eligibility>
   1894c:	48 8d 85 50 ff ff ff 	lea    -0xb0(%rbp),%rax
   18953:	48 89 c7             	mov    %rax,%rdi
   18956:	e8 93 70 00 00       	call   1f9ee <_ZN11EligibilityD1Ev>
   1895b:	48 8d 45 a0          	lea    -0x60(%rbp),%rax
   1895f:	48 89 c7             	mov    %rax,%rdi
   18962:	e8 19 ec ff ff       	call   17580 <_ZNSt7__cxx1112basic_stringIcSt11char_traitsIcESaIcEED1Ev@plt>
   18967:	48 8d 85 4b ff ff ff 	lea    -0xb5(%rbp),%rax
   1896e:	48 89 c7             	mov    %rax,%rdi
   18971:	e8 8a e9 ff ff       	call   17300 <_ZNSaIcED1Ev@plt>
   18976:	b8 00 00 00 00       	mov    $0x0,%eax
   1897b:	48 8b 55 c8          	mov    -0x38(%rbp),%rdx
   1897f:	64 48 2b 14 25 28 00 	sub    %fs:0x28,%rdx
   18986:	00 00 
   18988:	74 49                	je     189d3 <_ZL24offerEligibilityCallbackPviPPcS1_+0x1f8>
   1898a:	eb 42                	jmp    189ce <_ZL24offerEligibilityCallbackPviPPcS1_+0x1f3>
   1898c:	48 89 c3             	mov    %rax,%rbx
   1898f:	48 8d 85 50 ff ff ff 	lea    -0xb0(%rbp),%rax
   18996:	48 89 c7             	mov    %rax,%rdi
   18999:	e8 50 70 00 00       	call   1f9ee <_ZN11EligibilityD1Ev>
   1899e:	eb 03                	jmp    189a3 <_ZL24offerEligibilityCallbackPviPPcS1_+0x1c8>
   189a0:	48 89 c3             	mov    %rax,%rbx
   189a3:	48 8d 45 a0          	lea    -0x60(%rbp),%rax
   189a7:	48 89 c7             	mov    %rax,%rdi
   189aa:	e8 d1 eb ff ff       	call   17580 <_ZNSt7__cxx1112basic_stringIcSt11char_traitsIcESaIcEED1Ev@plt>
   189af:	eb 03                	jmp    189b4 <_ZL24offerEligibilityCallbackPviPPcS1_+0x1d9>
   189b1:	48 89 c3             	mov    %rax,%rbx
   189b4:	48 8d 85 4b ff ff ff 	lea    -0xb5(%rbp),%rax
   189bb:	48 89 c7             	mov    %rax,%rdi
   189be:	e8 3d e9 ff ff       	call   17300 <_ZNSaIcED1Ev@plt>
   189c3:	48 89 d8             	mov    %rbx,%rax
   189c6:	48 89 c7             	mov    %rax,%rdi
   189c9:	e8 32 eb ff ff       	call   17500 <_Unwind_Resume@plt>
   189ce:	e8 5d e9 ff ff       	call   17330 <__stack_chk_fail@plt>
   189d3:	48 81 c4 b8 00 00 00 	add    $0xb8,%rsp
   189da:	5b                   	pop    %rbx
   189db:	41 5c                	pop    %r12
   189dd:	41 5d                	pop    %r13
   189df:	41 5e                	pop    %r14
   189e1:	41 5f                	pop    %r15
   189e3:	5d                   	pop    %rbp
   189e4:	c3                   	ret    

00000000000189e5 <_Z10initializeR7Company>:
   189e5:	55                   	push   %rbp
   189e6:	48 89 e5             	mov    %rsp,%rbp
   189e9:	53                   	push   %rbx
   189ea:	48 81 ec 58 03 00 00 	sub    $0x358,%rsp
   189f1:	48 89 bd a8 fc ff ff 	mov    %rdi,-0x358(%rbp)
   189f8:	64 48 8b 04 25 28 00 	mov    %fs:0x28,%rax
   189ff:	00 00 
   18a01:	48 89 45 e8          	mov    %rax,-0x18(%rbp)
   18a05:	31 c0                	xor    %eax,%eax
   18a07:	c7 85 c0 fc ff ff 00 	movl   $0x0,-0x340(%rbp)
   18a0e:	00 00 00 
   18a11:	48 8d 85 c8 fc ff ff 	lea    -0x338(%rbp),%rax
   18a18:	48 89 c6             	mov    %rax,%rsi
   18a1b:	48 8d 05 f3 b5 01 00 	lea    0x1b5f3(%rip),%rax        # 34015 <_IO_stdin_used+0x15>
   18a22:	48 89 c7             	mov    %rax,%rdi
   18a25:	e8 c6 ea ff ff       	call   174f0 <sqlite3_open@plt>
   18a2a:	89 85 c0 fc ff ff    	mov    %eax,-0x340(%rbp)
   18a30:	c7 85 bc fc ff ff 0f 	movl   $0x270f,-0x344(%rbp)
   18a37:	27 00 00 
   18a3a:	48 8d 85 00 fd ff ff 	lea    -0x300(%rbp),%rax
   18a41:	48 89 c7             	mov    %rax,%rdi
   18a44:	e8 c7 ea ff ff       	call   17510 <_ZNSaIcEC1Ev@plt>
   18a49:	48 8d 95 00 fd ff ff 	lea    -0x300(%rbp),%rdx
   18a50:	48 8d 85 40 fd ff ff 	lea    -0x2c0(%rbp),%rax
   18a57:	48 8d 0d c9 b5 01 00 	lea    0x1b5c9(%rip),%rcx        # 34027 <_IO_stdin_used+0x27>
   18a5e:	48 89 ce             	mov    %rcx,%rsi
   18a61:	48 89 c7             	mov    %rax,%rdi
   18a64:	e8 fb 77 00 00       	call   20264 <_ZNSt7__cxx1112basic_stringIcSt11char_traitsIcESaIcEEC1IS3_EEPKcRKS3_>
   18a69:	48 8d 85 00 fd ff ff 	lea    -0x300(%rbp),%rax
   18a70:	48 89 c7             	mov    %rax,%rdi
   18a73:	e8 88 e8 ff ff       	call   17300 <_ZNSaIcED1Ev@plt>
   18a78:	83 bd c0 fc ff ff 00 	cmpl   $0x0,-0x340(%rbp)
   18a7f:	74 52                	je     18ad3 <_Z10initializeR7Company+0xee>
   18a81:	48 8d 05 bd b5 01 00 	lea    0x1b5bd(%rip),%rax        # 34045 <_IO_stdin_used+0x45>
   18a88:	48 89 c6             	mov    %rax,%rsi
   18a8b:	48 8d 05 ce 8a 02 00 	lea    0x28ace(%rip),%rax        # 41560 <_ZSt4cerr@@GLIBCXX_3.4>
   18a92:	48 89 c7             	mov    %rax,%rdi
   18a95:	e8 06 e8 ff ff       	call   172a0 <_ZStlsISt11char_traitsIcEERSt13basic_ostreamIcT_ES5_PKc@plt>
   18a9a:	48 89 c3             	mov    %rax,%rbx
   18a9d:	48 8b 85 c8 fc ff ff 	mov    -0x338(%rbp),%rax
   18aa4:	48 89 c7             	mov    %rax,%rdi
   18aa7:	e8 e4 e7 ff ff       	call   17290 <sqlite3_errmsg@plt>
   18aac:	48 89 c6             	mov    %rax,%rsi
   18aaf:	48 89 df             	mov    %rbx,%rdi
   18ab2:	e8 e9 e7 ff ff       	call   172a0 <_ZStlsISt11char_traitsIcEERSt13basic_ostreamIcT_ES5_PKc@plt>
   18ab7:	48 8b 15 fa 84 02 00 	mov    0x284fa(%rip),%rdx        # 40fb8 <_ZSt4endlIcSt11char_traitsIcEERSt13basic_ostreamIT_T0_ES6_@GLIBCXX_3.4>
   18abe:	48 89 d6             	mov    %rdx,%rsi
   18ac1:	48 89 c7             	mov    %rax,%rdi
   18ac4:	e8 17 e8 ff ff       	call   172e0 <_ZNSolsEPFRSoS_E@plt>
   18ac9:	bb 00 00 00 00       	mov    $0x0,%ebx
   18ace:	e9 d9 09 00 00       	jmp    194ac <_Z10initializeR7Company+0xac7>
   18ad3:	48 8d 85 40 fd ff ff 	lea    -0x2c0(%rbp),%rax
   18ada:	48 89 c7             	mov    %rax,%rdi
   18add:	e8 3e e6 ff ff       	call   17120 <_ZNKSt7__cxx1112basic_stringIcSt11char_traitsIcESaIcEE5c_strEv@plt>
   18ae2:	48 89 c6             	mov    %rax,%rsi
   18ae5:	48 8b 85 c8 fc ff ff 	mov    -0x338(%rbp),%rax
   18aec:	48 8d 8d d0 fc ff ff 	lea    -0x330(%rbp),%rcx
   18af3:	48 8d 95 bc fc ff ff 	lea    -0x344(%rbp),%rdx
   18afa:	49 89 c8             	mov    %rcx,%r8
   18afd:	48 89 d1             	mov    %rdx,%rcx
   18b00:	48 8d 15 25 ee ff ff 	lea    -0x11db(%rip),%rdx        # 1792c <_ZL8callbackPviPPcS1_>
   18b07:	48 89 c7             	mov    %rax,%rdi
   18b0a:	e8 d1 e8 ff ff       	call   173e0 <sqlite3_exec@plt>
   18b0f:	89 85 c4 fc ff ff    	mov    %eax,-0x33c(%rbp)
   18b15:	83 bd c4 fc ff ff 00 	cmpl   $0x0,-0x33c(%rbp)
   18b1c:	74 2b                	je     18b49 <_Z10initializeR7Company+0x164>
   18b1e:	48 8d 05 2f b5 01 00 	lea    0x1b52f(%rip),%rax        # 34054 <_IO_stdin_used+0x54>
   18b25:	48 89 c6             	mov    %rax,%rsi
   18b28:	48 8d 05 31 8a 02 00 	lea    0x28a31(%rip),%rax        # 41560 <_ZSt4cerr@@GLIBCXX_3.4>
   18b2f:	48 89 c7             	mov    %rax,%rdi
   18b32:	e8 69 e7 ff ff       	call   172a0 <_ZStlsISt11char_traitsIcEERSt13basic_ostreamIcT_ES5_PKc@plt>
   18b37:	48 8b 15 7a 84 02 00 	mov    0x2847a(%rip),%rdx        # 40fb8 <_ZSt4endlIcSt11char_traitsIcEERSt13basic_ostreamIT_T0_ES6_@GLIBCXX_3.4>
   18b3e:	48 89 d6             	mov    %rdx,%rsi
   18b41:	48 89 c7             	mov    %rax,%rdi
   18b44:	e8 97 e7 ff ff       	call   172e0 <_ZNSolsEPFRSoS_E@plt>
   18b49:	8b 85 bc fc ff ff    	mov    -0x344(%rbp),%eax
   18b4f:	85 c0                	test   %eax,%eax
   18b51:	75 0a                	jne    18b5d <_Z10initializeR7Company+0x178>
   18b53:	bb 00 00 00 00       	mov    $0x0,%ebx
   18b58:	e9 4f 09 00 00       	jmp    194ac <_Z10initializeR7Company+0xac7>
   18b5d:	48 8d 85 40 fd ff ff 	lea    -0x2c0(%rbp),%rax
   18b64:	48 8d 15 f6 b4 01 00 	lea    0x1b4f6(%rip),%rdx        # 34061 <_IO_stdin_used+0x61>
   18b6b:	48 89 d6             	mov    %rdx,%rsi
   18b6e:	48 89 c7             	mov    %rax,%rdi
   18b71:	e8 7a e8 ff ff       	call   173f0 <_ZNSt7__cxx1112basic_stringIcSt11char_traitsIcESaIcEEaSEPKc@plt>
   18b76:	48 8d 85 40 fd ff ff 	lea    -0x2c0(%rbp),%rax
   18b7d:	48 89 c7             	mov    %rax,%rdi
   18b80:	e8 9b e5 ff ff       	call   17120 <_ZNKSt7__cxx1112basic_stringIcSt11char_traitsIcESaIcEE5c_strEv@plt>
   18b85:	48 89 c6             	mov    %rax,%rsi
   18b88:	48 8b 85 c8 fc ff ff 	mov    -0x338(%rbp),%rax
   18b8f:	48 8d 8d d0 fc ff ff 	lea    -0x330(%rbp),%rcx
   18b96:	48 8b 95 a8 fc ff ff 	mov    -0x358(%rbp),%rdx
   18b9d:	49 89 c8             	mov    %rcx,%r8
   18ba0:	48 89 d1             	mov    %rdx,%rcx
   18ba3:	48 8d 15 b5 ed ff ff 	lea    -0x124b(%rip),%rdx        # 1795f <_ZL15companyCallbackPviPPcS1_>
   18baa:	48 89 c7             	mov    %rax,%rdi
   18bad:	e8 2e e8 ff ff       	call   173e0 <sqlite3_exec@plt>
   18bb2:	89 85 c4 fc ff ff    	mov    %eax,-0x33c(%rbp)
   18bb8:	48 8b 85 a8 fc ff ff 	mov    -0x358(%rbp),%rax
   18bbf:	48 89 c7             	mov    %rax,%rdi
   18bc2:	e8 49 f6 00 00       	call   28210 <_ZNK7Company12getCompanyIdEv>
   18bc7:	89 c2                	mov    %eax,%edx
   18bc9:	48 8d 85 30 fe ff ff 	lea    -0x1d0(%rbp),%rax
   18bd0:	89 d6                	mov    %edx,%esi
   18bd2:	48 89 c7             	mov    %rax,%rdi
   18bd5:	e8 6d 6c 00 00       	call   1f847 <_ZNSt7__cxx119to_stringEi>
   18bda:	48 8d 85 f0 fe ff ff 	lea    -0x110(%rbp),%rax
   18be1:	48 8d 95 30 fe ff ff 	lea    -0x1d0(%rbp),%rdx
   18be8:	48 8d 0d 89 b4 01 00 	lea    0x1b489(%rip),%rcx        # 34078 <_IO_stdin_used+0x78>
   18bef:	48 89 ce             	mov    %rcx,%rsi
   18bf2:	48 89 c7             	mov    %rax,%rdi
   18bf5:	e8 96 74 00 00       	call   20090 <_ZStplIcSt11char_traitsIcESaIcEENSt7__cxx1112basic_stringIT_T0_T1_EEPKS5_OS8_>
   18bfa:	48 8d 95 f0 fe ff ff 	lea    -0x110(%rbp),%rdx
   18c01:	48 8d 85 40 fd ff ff 	lea    -0x2c0(%rbp),%rax
   18c08:	48 89 d6             	mov    %rdx,%rsi
   18c0b:	48 89 c7             	mov    %rax,%rdi
   18c0e:	e8 5d e7 ff ff       	call   17370 <_ZNSt7__cxx1112basic_stringIcSt11char_traitsIcESaIcEEaSEOS4_@plt>
   18c13:	48 8d 85 f0 fe ff ff 	lea    -0x110(%rbp),%rax
   18c1a:	48 89 c7             	mov    %rax,%rdi
   18c1d:	e8 5e e9 ff ff       	call   17580 <_ZNSt7__cxx1112basic_stringIcSt11char_traitsIcESaIcEED1Ev@plt>
   18c22:	48 8d 85 30 fe ff ff 	lea    -0x1d0(%rbp),%rax
   18c29:	48 89 c7             	mov    %rax,%rdi
   18c2c:	e8 4f e9 ff ff       	call   17580 <_ZNSt7__cxx1112basic_stringIcSt11char_traitsIcESaIcEED1Ev@plt>
   18c31:	48 8d 85 40 fd ff ff 	lea    -0x2c0(%rbp),%rax
   18c38:	48 89 c7             	mov    %rax,%rdi
   18c3b:	e8 e0 e4 ff ff       	call   17120 <_ZNKSt7__cxx1112basic_stringIcSt11char_traitsIcESaIcEE5c_strEv@plt>
   18c40:	48 89 c6             	mov    %rax,%rsi
   18c43:	48 8b 85 c8 fc ff ff 	mov    -0x338(%rbp),%rax
   18c4a:	48 8d 8d d0 fc ff ff 	lea    -0x330(%rbp),%rcx
   18c51:	48 8b 95 a8 fc ff ff 	mov    -0x358(%rbp),%rdx
   18c58:	49 89 c8             	mov    %rcx,%r8
   18c5b:	48 89 d1             	mov    %rdx,%rcx
   18c5e:	48 8d 15 e8 ee ff ff 	lea    -0x1118(%rip),%rdx        # 17b4d <_ZL13offerCallbackPviPPcS1_>
   18c65:	48 89 c7             	mov    %rax,%rdi
   18c68:	e8 73 e7 ff ff       	call   173e0 <sqlite3_exec@plt>
   18c6d:	89 85 c4 fc ff ff    	mov    %eax,-0x33c(%rbp)
   18c73:	48 8b 85 a8 fc ff ff 	mov    -0x358(%rbp),%rax
   18c7a:	48 89 c7             	mov    %rax,%rdi
   18c7d:	e8 30 e9 00 00       	call   275b2 <_ZN7Company9getOffersEv>
   18c82:	48 89 85 08 fd ff ff 	mov    %rax,-0x2f8(%rbp)
   18c89:	48 8b 85 08 fd ff ff 	mov    -0x2f8(%rbp),%rax
   18c90:	48 89 c7             	mov    %rax,%rdi
   18c93:	e8 fe 78 00 00       	call   20596 <_ZNSt6vectorI5OfferSaIS0_EE5beginEv>
   18c98:	48 89 85 f8 fc ff ff 	mov    %rax,-0x308(%rbp)
   18c9f:	48 8b 85 08 fd ff ff 	mov    -0x2f8(%rbp),%rax
   18ca6:	48 89 c7             	mov    %rax,%rdi
   18ca9:	e8 30 79 00 00       	call   205de <_ZNSt6vectorI5OfferSaIS0_EE3endEv>
   18cae:	48 89 85 00 fd ff ff 	mov    %rax,-0x300(%rbp)
   18cb5:	e9 07 01 00 00       	jmp    18dc1 <_Z10initializeR7Company+0x3dc>
   18cba:	48 8d 85 f8 fc ff ff 	lea    -0x308(%rbp),%rax
   18cc1:	48 89 c7             	mov    %rax,%rdi
   18cc4:	e8 c1 79 00 00       	call   2068a <_ZNK9__gnu_cxx17__normal_iteratorIP5OfferSt6vectorIS1_SaIS1_EEEdeEv>
   18cc9:	48 89 c2             	mov    %rax,%rdx
   18ccc:	48 8d 85 f0 fe ff ff 	lea    -0x110(%rbp),%rax
   18cd3:	48 89 d6             	mov    %rdx,%rsi
   18cd6:	48 89 c7             	mov    %rax,%rdi
   18cd9:	e8 86 3c 01 00       	call   2c964 <_ZN5OfferC1ERKS_>
   18cde:	48 8d 85 f0 fe ff ff 	lea    -0x110(%rbp),%rax
   18ce5:	48 89 c7             	mov    %rax,%rdi
   18ce8:	e8 7b 46 01 00       	call   2d368 <_ZNK5Offer10getOfferIdEv>
   18ced:	89 05 81 89 02 00    	mov    %eax,0x28981(%rip)        # 41674 <offerId>
   18cf3:	8b 15 7b 89 02 00    	mov    0x2897b(%rip),%edx        # 41674 <offerId>
   18cf9:	48 8d 85 30 fe ff ff 	lea    -0x1d0(%rbp),%rax
   18d00:	89 d6                	mov    %edx,%esi
   18d02:	48 89 c7             	mov    %rax,%rdi
   18d05:	e8 3d 6b 00 00       	call   1f847 <_ZNSt7__cxx119to_stringEi>
   18d0a:	48 8d 85 60 fd ff ff 	lea    -0x2a0(%rbp),%rax
   18d11:	48 8d 95 30 fe ff ff 	lea    -0x1d0(%rbp),%rdx
   18d18:	48 8d 0d 81 b3 01 00 	lea    0x1b381(%rip),%rcx        # 340a0 <_IO_stdin_used+0xa0>
   18d1f:	48 89 ce             	mov    %rcx,%rsi
   18d22:	48 89 c7             	mov    %rax,%rdi
   18d25:	e8 66 73 00 00       	call   20090 <_ZStplIcSt11char_traitsIcESaIcEENSt7__cxx1112basic_stringIT_T0_T1_EEPKS5_OS8_>
   18d2a:	48 8d 95 60 fd ff ff 	lea    -0x2a0(%rbp),%rdx
   18d31:	48 8d 85 40 fd ff ff 	lea    -0x2c0(%rbp),%rax
   18d38:	48 89 d6             	mov    %rdx,%rsi
   18d3b:	48 89 c7             	mov    %rax,%rdi
   18d3e:	e8 2d e6 ff ff       	call   17370 <_ZNSt7__cxx1112basic_stringIcSt11char_traitsIcESaIcEEaSEOS4_@plt>
   18d43:	48 8d 85 60 fd ff ff 	lea    -0x2a0(%rbp),%rax
   18d4a:	48 89 c7             	mov    %rax,%rdi
   18d4d:	e8 2e e8 ff ff       	call   17580 <_ZNSt7__cxx1112basic_stringIcSt11char_traitsIcESaIcEED1Ev@plt>
   18d52:	48 8d 85 30 fe ff ff 	lea    -0x1d0(%rbp),%rax
   18d59:	48 89 c7             	mov    %rax,%rdi
   18d5c:	e8 1f e8 ff ff       	call   17580 <_ZNSt7__cxx1112basic_stringIcSt11char_traitsIcESaIcEED1Ev@plt>
   18d61:	48 8d 85 40 fd ff ff 	lea    -0x2c0(%rbp),%rax
   18d68:	48 89 c7             	mov    %rax,%rdi
   18d6b:	e8 b0 e3 ff ff       	call   17120 <_ZNKSt7__cxx1112basic_stringIcSt11char_traitsIcESaIcEE5c_strEv@plt>
   18d70:	48 89 c6             	mov    %rax,%rsi
   18d73:	48 8b 85 c8 fc ff ff 	mov    -0x338(%rbp),%rax
   18d7a:	48 8d 8d d0 fc ff ff 	lea    -0x330(%rbp),%rcx
   18d81:	48 8b 95 a8 fc ff ff 	mov    -0x358(%rbp),%rdx
   18d88:	49 89 c8             	mov    %rcx,%r8
   18d8b:	48 89 d1             	mov    %rdx,%rcx
   18d8e:	48 8d 15 46 fa ff ff 	lea    -0x5ba(%rip),%rdx        # 187db <_ZL24offerEligibilityCallbackPviPPcS1_>
   18d95:	48 89 c7             	mov    %rax,%rdi
   18d98:	e8 43 e6 ff ff       	call   173e0 <sqlite3_exec@plt>
   18d9d:	89 85 c4 fc ff ff    	mov    %eax,-0x33c(%rbp)
   18da3:	48 8d 85 f0 fe ff ff 	lea    -0x110(%rbp),%rax
   18daa:	48 89 c7             	mov    %rax,%rdi
   18dad:	e8 b0 6c 00 00       	call   1fa62 <_ZN5OfferD1Ev>
   18db2:	48 8d 85 f8 fc ff ff 	lea    -0x308(%rbp),%rax
   18db9:	48 89 c7             	mov    %rax,%rdi
   18dbc:	e8 a5 78 00 00       	call   20666 <_ZN9__gnu_cxx17__normal_iteratorIP5OfferSt6vectorIS1_SaIS1_EEEppEv>
   18dc1:	48 8d 95 00 fd ff ff 	lea    -0x300(%rbp),%rdx
   18dc8:	48 8d 85 f8 fc ff ff 	lea    -0x308(%rbp),%rax
   18dcf:	48 89 d6             	mov    %rdx,%rsi
   18dd2:	48 89 c7             	mov    %rax,%rdi
   18dd5:	e8 50 78 00 00       	call   2062a <_ZN9__gnu_cxxneIP5OfferSt6vectorIS1_SaIS1_EEEEbRKNS_17__normal_iteratorIT_T0_EESB_>
   18dda:	84 c0                	test   %al,%al
   18ddc:	0f 85 d8 fe ff ff    	jne    18cba <_Z10initializeR7Company+0x2d5>
   18de2:	48 8b 85 a8 fc ff ff 	mov    -0x358(%rbp),%rax
   18de9:	48 89 c7             	mov    %rax,%rdi
   18dec:	e8 c1 e7 00 00       	call   275b2 <_ZN7Company9getOffersEv>
   18df1:	48 89 85 10 fd ff ff 	mov    %rax,-0x2f0(%rbp)
   18df8:	48 8b 85 10 fd ff ff 	mov    -0x2f0(%rbp),%rax
   18dff:	48 89 c7             	mov    %rax,%rdi
   18e02:	e8 8f 77 00 00       	call   20596 <_ZNSt6vectorI5OfferSaIS0_EE5beginEv>
   18e07:	48 89 85 f8 fc ff ff 	mov    %rax,-0x308(%rbp)
   18e0e:	48 8b 85 10 fd ff ff 	mov    -0x2f0(%rbp),%rax
   18e15:	48 89 c7             	mov    %rax,%rdi
   18e18:	e8 c1 77 00 00       	call   205de <_ZNSt6vectorI5OfferSaIS0_EE3endEv>
   18e1d:	48 89 85 00 fd ff ff 	mov    %rax,-0x300(%rbp)
   18e24:	e9 4c 01 00 00       	jmp    18f75 <_Z10initializeR7Company+0x590>
   18e29:	48 8d 85 f8 fc ff ff 	lea    -0x308(%rbp),%rax
   18e30:	48 89 c7             	mov    %rax,%rdi
   18e33:	e8 52 78 00 00       	call   2068a <_ZNK9__gnu_cxx17__normal_iteratorIP5OfferSt6vectorIS1_SaIS1_EEEdeEv>
   18e38:	48 89 c2             	mov    %rax,%rdx
   18e3b:	48 8d 85 f0 fe ff ff 	lea    -0x110(%rbp),%rax
   18e42:	48 89 d6             	mov    %rdx,%rsi
   18e45:	48 89 c7             	mov    %rax,%rdi
   18e48:	e8 17 3b 01 00       	call   2c964 <_ZN5OfferC1ERKS_>
   18e4d:	48 8d 85 f0 fe ff ff 	lea    -0x110(%rbp),%rax
   18e54:	48 89 c7             	mov    %rax,%rdi
   18e57:	e8 0c 45 01 00       	call   2d368 <_ZNK5Offer10getOfferIdEv>
   18e5c:	89 c2                	mov    %eax,%edx
   18e5e:	48 8d 85 a0 fd ff ff 	lea    -0x260(%rbp),%rax
   18e65:	89 d6                	mov    %edx,%esi
   18e67:	48 89 c7             	mov    %rax,%rdi
   18e6a:	e8 d8 69 00 00       	call   1f847 <_ZNSt7__cxx119to_stringEi>
   18e6f:	48 8d 85 30 fe ff ff 	lea    -0x1d0(%rbp),%rax
   18e76:	48 8d 95 a0 fd ff ff 	lea    -0x260(%rbp),%rdx
   18e7d:	48 8d 0d 4c b2 01 00 	lea    0x1b24c(%rip),%rcx        # 340d0 <_IO_stdin_used+0xd0>
   18e84:	48 89 ce             	mov    %rcx,%rsi
   18e87:	48 89 c7             	mov    %rax,%rdi
   18e8a:	e8 01 72 00 00       	call   20090 <_ZStplIcSt11char_traitsIcESaIcEENSt7__cxx1112basic_stringIT_T0_T1_EEPKS5_OS8_>
   18e8f:	48 8d 95 30 fe ff ff 	lea    -0x1d0(%rbp),%rdx
   18e96:	48 8d 85 40 fd ff ff 	lea    -0x2c0(%rbp),%rax
   18e9d:	48 89 d6             	mov    %rdx,%rsi
   18ea0:	48 89 c7             	mov    %rax,%rdi
   18ea3:	e8 c8 e4 ff ff       	call   17370 <_ZNSt7__cxx1112basic_stringIcSt11char_traitsIcESaIcEEaSEOS4_@plt>
   18ea8:	48 8d 85 30 fe ff ff 	lea    -0x1d0(%rbp),%rax
   18eaf:	48 89 c7             	mov    %rax,%rdi
   18eb2:	e8 c9 e6 ff ff       	call   17580 <_ZNSt7__cxx1112basic_stringIcSt11char_traitsIcESaIcEED1Ev@plt>
   18eb7:	48 8d 85 a0 fd ff ff 	lea    -0x260(%rbp),%rax
   18ebe:	48 89 c7             	mov    %rax,%rdi
   18ec1:	e8 ba e6 ff ff       	call   17580 <_ZNSt7__cxx1112basic_stringIcSt11char_traitsIcESaIcEED1Ev@plt>
   18ec6:	48 8d 85 40 fd ff ff 	lea    -0x2c0(%rbp),%rax
   18ecd:	48 89 c7             	mov    %rax,%rdi
   18ed0:	e8 4b e2 ff ff       	call   17120 <_ZNKSt7__cxx1112basic_stringIcSt11char_traitsIcESaIcEE5c_strEv@plt>
   18ed5:	48 89 c6             	mov    %rax,%rsi
   18ed8:	48 8b 85 c8 fc ff ff 	mov    -0x338(%rbp),%rax
   18edf:	48 8d 8d d0 fc ff ff 	lea    -0x330(%rbp),%rcx
   18ee6:	48 8b 95 a8 fc ff ff 	mov    -0x358(%rbp),%rdx
   18eed:	49 89 c8             	mov    %rcx,%r8
   18ef0:	48 89 d1             	mov    %rdx,%rcx
   18ef3:	48 8d 15 41 ef ff ff 	lea    -0x10bf(%rip),%rdx        # 17e3b <_ZL15collegeCallbackPviPPcS1_>
   18efa:	48 89 c7             	mov    %rax,%rdi
   18efd:	e8 de e4 ff ff       	call   173e0 <sqlite3_exec@plt>
   18f02:	89 85 c4 fc ff ff    	mov    %eax,-0x33c(%rbp)
   18f08:	83 bd c4 fc ff ff 00 	cmpl   $0x0,-0x33c(%rbp)
   18f0f:	74 2b                	je     18f3c <_Z10initializeR7Company+0x557>
   18f11:	48 8d 05 3c b1 01 00 	lea    0x1b13c(%rip),%rax        # 34054 <_IO_stdin_used+0x54>
   18f18:	48 89 c6             	mov    %rax,%rsi
   18f1b:	48 8d 05 3e 86 02 00 	lea    0x2863e(%rip),%rax        # 41560 <_ZSt4cerr@@GLIBCXX_3.4>
   18f22:	48 89 c7             	mov    %rax,%rdi
   18f25:	e8 76 e3 ff ff       	call   172a0 <_ZStlsISt11char_traitsIcEERSt13basic_ostreamIcT_ES5_PKc@plt>
   18f2a:	48 8b 15 87 80 02 00 	mov    0x28087(%rip),%rdx        # 40fb8 <_ZSt4endlIcSt11char_traitsIcEERSt13basic_ostreamIT_T0_ES6_@GLIBCXX_3.4>
   18f31:	48 89 d6             	mov    %rdx,%rsi
   18f34:	48 89 c7             	mov    %rax,%rdi
   18f37:	e8 a4 e3 ff ff       	call   172e0 <_ZNSolsEPFRSoS_E@plt>
   18f3c:	8b 85 bc fc ff ff    	mov    -0x344(%rbp),%eax
   18f42:	85 c0                	test   %eax,%eax
   18f44:	75 07                	jne    18f4d <_Z10initializeR7Company+0x568>
   18f46:	bb 00 00 00 00       	mov    $0x0,%ebx
   18f4b:	eb 05                	jmp    18f52 <_Z10initializeR7Company+0x56d>
   18f4d:	bb 01 00 00 00       	mov    $0x1,%ebx
   18f52:	48 8d 85 f0 fe ff ff 	lea    -0x110(%rbp),%rax
   18f59:	48 89 c7             	mov    %rax,%rdi
   18f5c:	e8 01 6b 00 00       	call   1fa62 <_ZN5OfferD1Ev>
   18f61:	83 fb 01             	cmp    $0x1,%ebx
   18f64:	75 77                	jne    18fdd <_Z10initializeR7Company+0x5f8>
   18f66:	48 8d 85 f8 fc ff ff 	lea    -0x308(%rbp),%rax
   18f6d:	48 89 c7             	mov    %rax,%rdi
   18f70:	e8 f1 76 00 00       	call   20666 <_ZN9__gnu_cxx17__normal_iteratorIP5OfferSt6vectorIS1_SaIS1_EEEppEv>
   18f75:	48 8d 95 00 fd ff ff 	lea    -0x300(%rbp),%rdx
   18f7c:	48 8d 85 f8 fc ff ff 	lea    -0x308(%rbp),%rax
   18f83:	48 89 d6             	mov    %rdx,%rsi
   18f86:	48 89 c7             	mov    %rax,%rdi
   18f89:	e8 9c 76 00 00       	call   2062a <_ZN9__gnu_cxxneIP5OfferSt6vectorIS1_SaIS1_EEEEbRKNS_17__normal_iteratorIT_T0_EESB_>
   18f8e:	84 c0                	test   %al,%al
   18f90:	0f 85 93 fe ff ff    	jne    18e29 <_Z10initializeR7Company+0x444>
   18f96:	48 8b 85 a8 fc ff ff 	mov    -0x358(%rbp),%rax
   18f9d:	48 89 c7             	mov    %rax,%rdi
   18fa0:	e8 0d e6 00 00       	call   275b2 <_ZN7Company9getOffersEv>
   18fa5:	48 89 85 18 fd ff ff 	mov    %rax,-0x2e8(%rbp)
   18fac:	48 8b 85 18 fd ff ff 	mov    -0x2e8(%rbp),%rax
   18fb3:	48 89 c7             	mov    %rax,%rdi
   18fb6:	e8 db 75 00 00       	call   20596 <_ZNSt6vectorI5OfferSaIS0_EE5beginEv>
   18fbb:	48 89 85 e8 fc ff ff 	mov    %rax,-0x318(%rbp)
   18fc2:	48 8b 85 18 fd ff ff 	mov    -0x2e8(%rbp),%rax
   18fc9:	48 89 c7             	mov    %rax,%rdi
   18fcc:	e8 0d 76 00 00       	call   205de <_ZNSt6vectorI5OfferSaIS0_EE3endEv>
   18fd1:	48 89 85 f0 fc ff ff 	mov    %rax,-0x310(%rbp)
   18fd8:	e9 c6 01 00 00       	jmp    191a3 <_Z10initializeR7Company+0x7be>
   18fdd:	bb 00 00 00 00       	mov    $0x0,%ebx
   18fe2:	e9 c5 04 00 00       	jmp    194ac <_Z10initializeR7Company+0xac7>
   18fe7:	48 8d 85 e8 fc ff ff 	lea    -0x318(%rbp),%rax
   18fee:	48 89 c7             	mov    %rax,%rdi
   18ff1:	e8 94 76 00 00       	call   2068a <_ZNK9__gnu_cxx17__normal_iteratorIP5OfferSt6vectorIS1_SaIS1_EEEdeEv>
   18ff6:	48 89 c2             	mov    %rax,%rdx
   18ff9:	48 8d 85 f0 fe ff ff 	lea    -0x110(%rbp),%rax
   19000:	48 89 d6             	mov    %rdx,%rsi
   19003:	48 89 c7             	mov    %rax,%rdi
   19006:	e8 59 39 01 00       	call   2c964 <_ZN5OfferC1ERKS_>
   1900b:	48 8d 85 f0 fe ff ff 	lea    -0x110(%rbp),%rax
   19012:	48 89 c7             	mov    %rax,%rdi
   19015:	e8 0c 43 01 00       	call   2d326 <_ZN5Offer10getCollegeEv>
   1901a:	48 89 85 38 fd ff ff 	mov    %rax,-0x2c8(%rbp)
   19021:	48 8b 85 38 fd ff ff 	mov    -0x2c8(%rbp),%rax
   19028:	48 89 c7             	mov    %rax,%rdi
   1902b:	e8 6c 76 00 00       	call   2069c <_ZNSt6vectorI7CollegeSaIS0_EE5beginEv>
   19030:	48 89 85 f8 fc ff ff 	mov    %rax,-0x308(%rbp)
   19037:	48 8b 85 38 fd ff ff 	mov    -0x2c8(%rbp),%rax
   1903e:	48 89 c7             	mov    %rax,%rdi
   19041:	e8 9e 76 00 00       	call   206e4 <_ZNSt6vectorI7CollegeSaIS0_EE3endEv>
   19046:	48 89 85 00 fd ff ff 	mov    %rax,-0x300(%rbp)
   1904d:	e9 12 01 00 00       	jmp    19164 <_Z10initializeR7Company+0x77f>
   19052:	48 8d 85 f8 fc ff ff 	lea    -0x308(%rbp),%rax
   19059:	48 89 c7             	mov    %rax,%rdi
   1905c:	e8 2f 77 00 00       	call   20790 <_ZNK9__gnu_cxx17__normal_iteratorIP7CollegeSt6vectorIS1_SaIS1_EEEdeEv>
   19061:	48 89 c2             	mov    %rax,%rdx
   19064:	48 8d 85 30 fe ff ff 	lea    -0x1d0(%rbp),%rax
   1906b:	48 89 d6             	mov    %rdx,%rsi
   1906e:	48 89 c7             	mov    %rax,%rdi
   19071:	e8 52 6b 00 00       	call   1fbc8 <_ZN7CollegeC1ERKS_>
   19076:	48 8d 85 f0 fe ff ff 	lea    -0x110(%rbp),%rax
   1907d:	48 89 c7             	mov    %rax,%rdi
   19080:	e8 e3 42 01 00       	call   2d368 <_ZNK5Offer10getOfferIdEv>
   19085:	89 05 e9 85 02 00    	mov    %eax,0x285e9(%rip)        # 41674 <offerId>
   1908b:	48 8d 85 30 fe ff ff 	lea    -0x1d0(%rbp),%rax
   19092:	48 89 c7             	mov    %rax,%rdi
   19095:	e8 14 a1 00 00       	call   231ae <_ZNK7College12getCollegeIdEv>
   1909a:	89 c2                	mov    %eax,%edx
   1909c:	48 8d 85 80 fd ff ff 	lea    -0x280(%rbp),%rax
   190a3:	89 d6                	mov    %edx,%esi
   190a5:	48 89 c7             	mov    %rax,%rdi
   190a8:	e8 9a 67 00 00       	call   1f847 <_ZNSt7__cxx119to_stringEi>
   190ad:	48 8d 85 a0 fd ff ff 	lea    -0x260(%rbp),%rax
   190b4:	48 8d 95 80 fd ff ff 	lea    -0x280(%rbp),%rdx
   190bb:	48 8d 0d 36 b0 01 00 	lea    0x1b036(%rip),%rcx        # 340f8 <_IO_stdin_used+0xf8>
   190c2:	48 89 ce             	mov    %rcx,%rsi
   190c5:	48 89 c7             	mov    %rax,%rdi
   190c8:	e8 c3 6f 00 00       	call   20090 <_ZStplIcSt11char_traitsIcESaIcEENSt7__cxx1112basic_stringIT_T0_T1_EEPKS5_OS8_>
   190cd:	48 8d 95 a0 fd ff ff 	lea    -0x260(%rbp),%rdx
   190d4:	48 8d 85 40 fd ff ff 	lea    -0x2c0(%rbp),%rax
   190db:	48 89 d6             	mov    %rdx,%rsi
   190de:	48 89 c7             	mov    %rax,%rdi
   190e1:	e8 8a e2 ff ff       	call   17370 <_ZNSt7__cxx1112basic_stringIcSt11char_traitsIcESaIcEEaSEOS4_@plt>
   190e6:	48 8d 85 a0 fd ff ff 	lea    -0x260(%rbp),%rax
   190ed:	48 89 c7             	mov    %rax,%rdi
   190f0:	e8 8b e4 ff ff       	call   17580 <_ZNSt7__cxx1112basic_stringIcSt11char_traitsIcESaIcEED1Ev@plt>
   190f5:	48 8d 85 80 fd ff ff 	lea    -0x280(%rbp),%rax
   190fc:	48 89 c7             	mov    %rax,%rdi
   190ff:	e8 7c e4 ff ff       	call   17580 <_ZNSt7__cxx1112basic_stringIcSt11char_traitsIcESaIcEED1Ev@plt>
   19104:	48 8d 85 40 fd ff ff 	lea    -0x2c0(%rbp),%rax
   1910b:	48 89 c7             	mov    %rax,%rdi
   1910e:	e8 0d e0 ff ff       	call   17120 <_ZNKSt7__cxx1112basic_stringIcSt11char_traitsIcESaIcEE5c_strEv@plt>
   19113:	48 89 c6             	mov    %rax,%rsi
   19116:	48 8b 85 c8 fc ff ff 	mov    -0x338(%rbp),%rax
   1911d:	48 8d 8d d0 fc ff ff 	lea    -0x330(%rbp),%rcx
   19124:	48 8b 95 a8 fc ff ff 	mov    -0x358(%rbp),%rdx
   1912b:	49 89 c8             	mov    %rcx,%r8
   1912e:	48 89 d1             	mov    %rdx,%rcx
   19131:	48 8d 15 1d f0 ff ff 	lea    -0xfe3(%rip),%rdx        # 18155 <_ZL15studentCallbackPviPPcS1_>
   19138:	48 89 c7             	mov    %rax,%rdi
   1913b:	e8 a0 e2 ff ff       	call   173e0 <sqlite3_exec@plt>
   19140:	89 85 c4 fc ff ff    	mov    %eax,-0x33c(%rbp)
   19146:	48 8d 85 30 fe ff ff 	lea    -0x1d0(%rbp),%rax
   1914d:	48 89 c7             	mov    %rax,%rdi
   19150:	e8 b3 69 00 00       	call   1fb08 <_ZN7CollegeD1Ev>
   19155:	48 8d 85 f8 fc ff ff 	lea    -0x308(%rbp),%rax
   1915c:	48 89 c7             	mov    %rax,%rdi
   1915f:	e8 08 76 00 00       	call   2076c <_ZN9__gnu_cxx17__normal_iteratorIP7CollegeSt6vectorIS1_SaIS1_EEEppEv>
   19164:	48 8d 95 00 fd ff ff 	lea    -0x300(%rbp),%rdx
   1916b:	48 8d 85 f8 fc ff ff 	lea    -0x308(%rbp),%rax
   19172:	48 89 d6             	mov    %rdx,%rsi
   19175:	48 89 c7             	mov    %rax,%rdi
   19178:	e8 b3 75 00 00       	call   20730 <_ZN9__gnu_cxxneIP7CollegeSt6vectorIS1_SaIS1_EEEEbRKNS_17__normal_iteratorIT_T0_EESB_>
   1917d:	84 c0                	test   %al,%al
   1917f:	0f 85 cd fe ff ff    	jne    19052 <_Z10initializeR7Company+0x66d>
   19185:	48 8d 85 f0 fe ff ff 	lea    -0x110(%rbp),%rax
   1918c:	48 89 c7             	mov    %rax,%rdi
   1918f:	e8 ce 68 00 00       	call   1fa62 <_ZN5OfferD1Ev>
   19194:	48 8d 85 e8 fc ff ff 	lea    -0x318(%rbp),%rax
   1919b:	48 89 c7             	mov    %rax,%rdi
   1919e:	e8 c3 74 00 00       	call   20666 <_ZN9__gnu_cxx17__normal_iteratorIP5OfferSt6vectorIS1_SaIS1_EEEppEv>
   191a3:	48 8d 95 f0 fc ff ff 	lea    -0x310(%rbp),%rdx
   191aa:	48 8d 85 e8 fc ff ff 	lea    -0x318(%rbp),%rax
   191b1:	48 89 d6             	mov    %rdx,%rsi
   191b4:	48 89 c7             	mov    %rax,%rdi
   191b7:	e8 6e 74 00 00       	call   2062a <_ZN9__gnu_cxxneIP5OfferSt6vectorIS1_SaIS1_EEEEbRKNS_17__normal_iteratorIT_T0_EESB_>
   191bc:	84 c0                	test   %al,%al
   191be:	0f 85 23 fe ff ff    	jne    18fe7 <_Z10initializeR7Company+0x602>
   191c4:	48 8b 85 a8 fc ff ff 	mov    -0x358(%rbp),%rax
   191cb:	48 89 c7             	mov    %rax,%rdi
   191ce:	e8 df e3 00 00       	call   275b2 <_ZN7Company9getOffersEv>
   191d3:	48 89 85 20 fd ff ff 	mov    %rax,-0x2e0(%rbp)
   191da:	48 8b 85 20 fd ff ff 	mov    -0x2e0(%rbp),%rax
   191e1:	48 89 c7             	mov    %rax,%rdi
   191e4:	e8 ad 73 00 00       	call   20596 <_ZNSt6vectorI5OfferSaIS0_EE5beginEv>
   191e9:	48 89 85 d8 fc ff ff 	mov    %rax,-0x328(%rbp)
   191f0:	48 8b 85 20 fd ff ff 	mov    -0x2e0(%rbp),%rax
   191f7:	48 89 c7             	mov    %rax,%rdi
   191fa:	e8 df 73 00 00       	call   205de <_ZNSt6vectorI5OfferSaIS0_EE3endEv>
   191ff:	48 89 85 e0 fc ff ff 	mov    %rax,-0x320(%rbp)
   19206:	e9 7b 02 00 00       	jmp    19486 <_Z10initializeR7Company+0xaa1>
   1920b:	48 8d 85 d8 fc ff ff 	lea    -0x328(%rbp),%rax
   19212:	48 89 c7             	mov    %rax,%rdi
   19215:	e8 70 74 00 00       	call   2068a <_ZNK9__gnu_cxx17__normal_iteratorIP5OfferSt6vectorIS1_SaIS1_EEEdeEv>
   1921a:	48 89 c2             	mov    %rax,%rdx
   1921d:	48 8d 85 30 fe ff ff 	lea    -0x1d0(%rbp),%rax
   19224:	48 89 d6             	mov    %rdx,%rsi
   19227:	48 89 c7             	mov    %rax,%rdi
   1922a:	e8 35 37 01 00       	call   2c964 <_ZN5OfferC1ERKS_>
   1922f:	48 8d 85 30 fe ff ff 	lea    -0x1d0(%rbp),%rax
   19236:	48 89 c7             	mov    %rax,%rdi
   19239:	e8 e8 40 01 00       	call   2d326 <_ZN5Offer10getCollegeEv>
   1923e:	48 89 85 28 fd ff ff 	mov    %rax,-0x2d8(%rbp)
   19245:	48 8b 85 28 fd ff ff 	mov    -0x2d8(%rbp),%rax
   1924c:	48 89 c7             	mov    %rax,%rdi
   1924f:	e8 48 74 00 00       	call   2069c <_ZNSt6vectorI7CollegeSaIS0_EE5beginEv>
   19254:	48 89 85 e8 fc ff ff 	mov    %rax,-0x318(%rbp)
   1925b:	48 8b 85 28 fd ff ff 	mov    -0x2d8(%rbp),%rax
   19262:	48 89 c7             	mov    %rax,%rdi
   19265:	e8 7a 74 00 00       	call   206e4 <_ZNSt6vectorI7CollegeSaIS0_EE3endEv>
   1926a:	48 89 85 f0 fc ff ff 	mov    %rax,-0x310(%rbp)
   19271:	e9 d1 01 00 00       	jmp    19447 <_Z10initializeR7Company+0xa62>
   19276:	48 8d 85 e8 fc ff ff 	lea    -0x318(%rbp),%rax
   1927d:	48 89 c7             	mov    %rax,%rdi
   19280:	e8 0b 75 00 00       	call   20790 <_ZNK9__gnu_cxx17__normal_iteratorIP7CollegeSt6vectorIS1_SaIS1_EEEdeEv>
   19285:	48 89 c2             	mov    %rax,%rdx
   19288:	48 8d 85 a0 fd ff ff 	lea    -0x260(%rbp),%rax
   1928f:	48 89 d6             	mov    %rdx,%rsi
   19292:	48 89 c7             	mov    %rax,%rdi
   19295:	e8 2e 69 00 00       	call   1fbc8 <_ZN7CollegeC1ERKS_>
   1929a:	48 8d 85 a0 fd ff ff 	lea    -0x260(%rbp),%rax
   192a1:	48 89 c7             	mov    %rax,%rdi
   192a4:	e8 f3 9e 00 00       	call   2319c <_ZN7College10getStudentEv>
   192a9:	48 89 85 30 fd ff ff 	mov    %rax,-0x2d0(%rbp)
   192b0:	48 8b 85 30 fd ff ff 	mov    -0x2d0(%rbp),%rax
   192b7:	48 89 c7             	mov    %rax,%rdi
   192ba:	e8 f7 75 00 00       	call   208b6 <_ZNSt6vectorI7StudentSaIS0_EE5beginEv>
   192bf:	48 89 85 f8 fc ff ff 	mov    %rax,-0x308(%rbp)
   192c6:	48 8b 85 30 fd ff ff 	mov    -0x2d0(%rbp),%rax
   192cd:	48 89 c7             	mov    %rax,%rdi
   192d0:	e8 29 76 00 00       	call   208fe <_ZNSt6vectorI7StudentSaIS0_EE3endEv>
   192d5:	48 89 85 00 fd ff ff 	mov    %rax,-0x300(%rbp)
   192dc:	e9 27 01 00 00       	jmp    19408 <_Z10initializeR7Company+0xa23>
   192e1:	48 8d 85 f8 fc ff ff 	lea    -0x308(%rbp),%rax
   192e8:	48 89 c7             	mov    %rax,%rdi
   192eb:	e8 ba 76 00 00       	call   209aa <_ZNK9__gnu_cxx17__normal_iteratorIP7StudentSt6vectorIS1_SaIS1_EEEdeEv>
   192f0:	48 89 c2             	mov    %rax,%rdx
   192f3:	48 8d 85 f0 fe ff ff 	lea    -0x110(%rbp),%rax
   192fa:	48 89 d6             	mov    %rdx,%rsi
   192fd:	48 89 c7             	mov    %rax,%rdi
   19300:	e8 ab 69 00 00       	call   1fcb0 <_ZN7StudentC1ERKS_>
   19305:	48 8d 85 30 fe ff ff 	lea    -0x1d0(%rbp),%rax
   1930c:	48 89 c7             	mov    %rax,%rdi
   1930f:	e8 54 40 01 00       	call   2d368 <_ZNK5Offer10getOfferIdEv>
   19314:	89 05 5a 83 02 00    	mov    %eax,0x2835a(%rip)        # 41674 <offerId>
   1931a:	48 8d 85 a0 fd ff ff 	lea    -0x260(%rbp),%rax
   19321:	48 89 c7             	mov    %rax,%rdi
   19324:	e8 85 9e 00 00       	call   231ae <_ZNK7College12getCollegeIdEv>
   19329:	89 05 49 83 02 00    	mov    %eax,0x28349(%rip)        # 41678 <collegeId>
   1932f:	48 8d 85 f0 fe ff ff 	lea    -0x110(%rbp),%rax
   19336:	48 89 c7             	mov    %rax,%rdi
   19339:	e8 9a 7e 01 00       	call   311d8 <_ZNK7Student5getIDEv>
   1933e:	89 c2                	mov    %eax,%edx
   19340:	48 8d 85 60 fd ff ff 	lea    -0x2a0(%rbp),%rax
   19347:	89 d6                	mov    %edx,%esi
   19349:	48 89 c7             	mov    %rax,%rdi
   1934c:	e8 f6 64 00 00       	call   1f847 <_ZNSt7__cxx119to_stringEi>
   19351:	48 8d 85 80 fd ff ff 	lea    -0x280(%rbp),%rax
   19358:	48 8d 95 60 fd ff ff 	lea    -0x2a0(%rbp),%rdx
   1935f:	48 8d 0d c2 ad 01 00 	lea    0x1adc2(%rip),%rcx        # 34128 <_IO_stdin_used+0x128>
   19366:	48 89 ce             	mov    %rcx,%rsi
   19369:	48 89 c7             	mov    %rax,%rdi
   1936c:	e8 1f 6d 00 00       	call   20090 <_ZStplIcSt11char_traitsIcESaIcEENSt7__cxx1112basic_stringIT_T0_T1_EEPKS5_OS8_>
   19371:	48 8d 95 80 fd ff ff 	lea    -0x280(%rbp),%rdx
   19378:	48 8d 85 40 fd ff ff 	lea    -0x2c0(%rbp),%rax
   1937f:	48 89 d6             	mov    %rdx,%rsi
   19382:	48 89 c7             	mov    %rax,%rdi
   19385:	e8 e6 df ff ff       	call   17370 <_ZNSt7__cxx1112basic_stringIcSt11char_traitsIcESaIcEEaSEOS4_@plt>
   1938a:	48 8d 85 80 fd ff ff 	lea    -0x280(%rbp),%rax
   19391:	48 89 c7             	mov    %rax,%rdi
   19394:	e8 e7 e1 ff ff       	call   17580 <_ZNSt7__cxx1112basic_stringIcSt11char_traitsIcESaIcEED1Ev@plt>
   19399:	48 8d 85 60 fd ff ff 	lea    -0x2a0(%rbp),%rax
   193a0:	48 89 c7             	mov    %rax,%rdi
   193a3:	e8 d8 e1 ff ff       	call   17580 <_ZNSt7__cxx1112basic_stringIcSt11char_traitsIcESaIcEED1Ev@plt>
   193a8:	48 8d 85 40 fd ff ff 	lea    -0x2c0(%rbp),%rax
   193af:	48 89 c7             	mov    %rax,%rdi
   193b2:	e8 69 dd ff ff       	call   17120 <_ZNKSt7__cxx1112basic_stringIcSt11char_traitsIcESaIcEE5c_strEv@plt>
   193b7:	48 89 c6             	mov    %rax,%rsi
   193ba:	48 8b 85 c8 fc ff ff 	mov    -0x338(%rbp),%rax
   193c1:	48 8d 8d d0 fc ff ff 	lea    -0x330(%rbp),%rcx
   193c8:	48 8b 95 a8 fc ff ff 	mov    -0x358(%rbp),%rdx
   193cf:	49 89 c8             	mov    %rcx,%r8
   193d2:	48 89 d1             	mov    %rdx,%rcx
   193d5:	48 8d 15 5d f1 ff ff 	lea    -0xea3(%rip),%rdx        # 18539 <_ZL26studentEligibilityCallbackPviPPcS1_>
   193dc:	48 89 c7             	mov    %rax,%rdi
   193df:	e8 fc df ff ff       	call   173e0 <sqlite3_exec@plt>
   193e4:	89 85 c4 fc ff ff    	mov    %eax,-0x33c(%rbp)
   193ea:	48 8d 85 f0 fe ff ff 	lea    -0x110(%rbp),%rax
   193f1:	48 89 c7             	mov    %rax,%rdi
   193f4:	e8 5f 67 00 00       	call   1fb58 <_ZN7StudentD1Ev>
   193f9:	48 8d 85 f8 fc ff ff 	lea    -0x308(%rbp),%rax
   19400:	48 89 c7             	mov    %rax,%rdi
   19403:	e8 7e 75 00 00       	call   20986 <_ZN9__gnu_cxx17__normal_iteratorIP7StudentSt6vectorIS1_SaIS1_EEEppEv>
   19408:	48 8d 95 00 fd ff ff 	lea    -0x300(%rbp),%rdx
   1940f:	48 8d 85 f8 fc ff ff 	lea    -0x308(%rbp),%rax
   19416:	48 89 d6             	mov    %rdx,%rsi
   19419:	48 89 c7             	mov    %rax,%rdi
   1941c:	e8 29 75 00 00       	call   2094a <_ZN9__gnu_cxxneIP7StudentSt6vectorIS1_SaIS1_EEEEbRKNS_17__normal_iteratorIT_T0_EESB_>
   19421:	84 c0                	test   %al,%al
   19423:	0f 85 b8 fe ff ff    	jne    192e1 <_Z10initializeR7Company+0x8fc>
   19429:	48 8d 85 a0 fd ff ff 	lea    -0x260(%rbp),%rax
   19430:	48 89 c7             	mov    %rax,%rdi
   19433:	e8 d0 66 00 00       	call   1fb08 <_ZN7CollegeD1Ev>
   19438:	48 8d 85 e8 fc ff ff 	lea    -0x318(%rbp),%rax
   1943f:	48 89 c7             	mov    %rax,%rdi
   19442:	e8 25 73 00 00       	call   2076c <_ZN9__gnu_cxx17__normal_iteratorIP7CollegeSt6vectorIS1_SaIS1_EEEppEv>
   19447:	48 8d 95 f0 fc ff ff 	lea    -0x310(%rbp),%rdx
   1944e:	48 8d 85 e8 fc ff ff 	lea    -0x318(%rbp),%rax
   19455:	48 89 d6             	mov    %rdx,%rsi
   19458:	48 89 c7             	mov    %rax,%rdi
   1945b:	e8 d0 72 00 00       	call   20730 <_ZN9__gnu_cxxneIP7CollegeSt6vectorIS1_SaIS1_EEEEbRKNS_17__normal_iteratorIT_T0_EESB_>
   19460:	84 c0                	test   %al,%al
   19462:	0f 85 0e fe ff ff    	jne    19276 <_Z10initializeR7Company+0x891>
   19468:	48 8d 85 30 fe ff ff 	lea    -0x1d0(%rbp),%rax
   1946f:	48 89 c7             	mov    %rax,%rdi
   19472:	e8 eb 65 00 00       	call   1fa62 <_ZN5OfferD1Ev>
   19477:	48 8d 85 d8 fc ff ff 	lea    -0x328(%rbp),%rax
   1947e:	48 89 c7             	mov    %rax,%rdi
   19481:	e8 e0 71 00 00       	call   20666 <_ZN9__gnu_cxx17__normal_iteratorIP5OfferSt6vectorIS1_SaIS1_EEEppEv>
   19486:	48 8d 95 e0 fc ff ff 	lea    -0x320(%rbp),%rdx
   1948d:	48 8d 85 d8 fc ff ff 	lea    -0x328(%rbp),%rax
   19494:	48 89 d6             	mov    %rdx,%rsi
   19497:	48 89 c7             	mov    %rax,%rdi
   1949a:	e8 8b 71 00 00       	call   2062a <_ZN9__gnu_cxxneIP5OfferSt6vectorIS1_SaIS1_EEEEbRKNS_17__normal_iteratorIT_T0_EESB_>
   1949f:	84 c0                	test   %al,%al
   194a1:	0f 85 64 fd ff ff    	jne    1920b <_Z10initializeR7Company+0x826>
   194a7:	bb 01 00 00 00       	mov    $0x1,%ebx
   194ac:	48 8d 85 40 fd ff ff 	lea    -0x2c0(%rbp),%rax
   194b3:	48 89 c7             	mov    %rax,%rdi
   194b6:	e8 c5 e0 ff ff       	call   17580 <_ZNSt7__cxx1112basic_stringIcSt11char_traitsIcESaIcEED1Ev@plt>
   194bb:	83 fb 01             	cmp    $0x1,%ebx
   194be:	48 8b 45 e8          	mov    -0x18(%rbp),%rax
   194c2:	64 48 2b 04 25 28 00 	sub    %fs:0x28,%rax
   194c9:	00 00 
   194cb:	0f 84 3d 01 00 00    	je     1960e <_Z10initializeR7Company+0xc29>
   194d1:	e9 33 01 00 00       	jmp    19609 <_Z10initializeR7Company+0xc24>
   194d6:	48 89 c3             	mov    %rax,%rbx
   194d9:	48 8d 85 00 fd ff ff 	lea    -0x300(%rbp),%rax
   194e0:	48 89 c7             	mov    %rax,%rdi
   194e3:	e8 18 de ff ff       	call   17300 <_ZNSaIcED1Ev@plt>
   194e8:	48 89 d8             	mov    %rbx,%rax
   194eb:	48 89 c7             	mov    %rax,%rdi
   194ee:	e8 0d e0 ff ff       	call   17500 <_Unwind_Resume@plt>
   194f3:	48 89 c3             	mov    %rax,%rbx
   194f6:	48 8d 85 30 fe ff ff 	lea    -0x1d0(%rbp),%rax
   194fd:	48 89 c7             	mov    %rax,%rdi
   19500:	e8 7b e0 ff ff       	call   17580 <_ZNSt7__cxx1112basic_stringIcSt11char_traitsIcESaIcEED1Ev@plt>
   19505:	e9 e5 00 00 00       	jmp    195ef <_Z10initializeR7Company+0xc0a>
   1950a:	48 89 c3             	mov    %rax,%rbx
   1950d:	48 8d 85 30 fe ff ff 	lea    -0x1d0(%rbp),%rax
   19514:	48 89 c7             	mov    %rax,%rdi
   19517:	e8 64 e0 ff ff       	call   17580 <_ZNSt7__cxx1112basic_stringIcSt11char_traitsIcESaIcEED1Ev@plt>
   1951c:	eb 03                	jmp    19521 <_Z10initializeR7Company+0xb3c>
   1951e:	48 89 c3             	mov    %rax,%rbx
   19521:	48 8d 85 f0 fe ff ff 	lea    -0x110(%rbp),%rax
   19528:	48 89 c7             	mov    %rax,%rdi
   1952b:	e8 32 65 00 00       	call   1fa62 <_ZN5OfferD1Ev>
   19530:	e9 ba 00 00 00       	jmp    195ef <_Z10initializeR7Company+0xc0a>
   19535:	48 89 c3             	mov    %rax,%rbx
   19538:	48 8d 85 a0 fd ff ff 	lea    -0x260(%rbp),%rax
   1953f:	48 89 c7             	mov    %rax,%rdi
   19542:	e8 39 e0 ff ff       	call   17580 <_ZNSt7__cxx1112basic_stringIcSt11char_traitsIcESaIcEED1Ev@plt>
   19547:	eb 03                	jmp    1954c <_Z10initializeR7Company+0xb67>
   19549:	48 89 c3             	mov    %rax,%rbx
   1954c:	48 8d 85 f0 fe ff ff 	lea    -0x110(%rbp),%rax
   19553:	48 89 c7             	mov    %rax,%rdi
   19556:	e8 07 65 00 00       	call   1fa62 <_ZN5OfferD1Ev>
   1955b:	e9 8f 00 00 00       	jmp    195ef <_Z10initializeR7Company+0xc0a>
   19560:	48 89 c3             	mov    %rax,%rbx
   19563:	48 8d 85 80 fd ff ff 	lea    -0x280(%rbp),%rax
   1956a:	48 89 c7             	mov    %rax,%rdi
   1956d:	e8 0e e0 ff ff       	call   17580 <_ZNSt7__cxx1112basic_stringIcSt11char_traitsIcESaIcEED1Ev@plt>
   19572:	eb 03                	jmp    19577 <_Z10initializeR7Company+0xb92>
   19574:	48 89 c3             	mov    %rax,%rbx
   19577:	48 8d 85 30 fe ff ff 	lea    -0x1d0(%rbp),%rax
   1957e:	48 89 c7             	mov    %rax,%rdi
   19581:	e8 82 65 00 00       	call   1fb08 <_ZN7CollegeD1Ev>
   19586:	eb 03                	jmp    1958b <_Z10initializeR7Company+0xba6>
   19588:	48 89 c3             	mov    %rax,%rbx
   1958b:	48 8d 85 f0 fe ff ff 	lea    -0x110(%rbp),%rax
   19592:	48 89 c7             	mov    %rax,%rdi
   19595:	e8 c8 64 00 00       	call   1fa62 <_ZN5OfferD1Ev>
   1959a:	eb 53                	jmp    195ef <_Z10initializeR7Company+0xc0a>
   1959c:	48 89 c3             	mov    %rax,%rbx
   1959f:	48 8d 85 60 fd ff ff 	lea    -0x2a0(%rbp),%rax
   195a6:	48 89 c7             	mov    %rax,%rdi
   195a9:	e8 d2 df ff ff       	call   17580 <_ZNSt7__cxx1112basic_stringIcSt11char_traitsIcESaIcEED1Ev@plt>
   195ae:	eb 03                	jmp    195b3 <_Z10initializeR7Company+0xbce>
   195b0:	48 89 c3             	mov    %rax,%rbx
   195b3:	48 8d 85 f0 fe ff ff 	lea    -0x110(%rbp),%rax
   195ba:	48 89 c7             	mov    %rax,%rdi
   195bd:	e8 96 65 00 00       	call   1fb58 <_ZN7StudentD1Ev>
   195c2:	eb 03                	jmp    195c7 <_Z10initializeR7Company+0xbe2>
   195c4:	48 89 c3             	mov    %rax,%rbx
   195c7:	48 8d 85 a0 fd ff ff 	lea    -0x260(%rbp),%rax
   195ce:	48 89 c7             	mov    %rax,%rdi
   195d1:	e8 32 65 00 00       	call   1fb08 <_ZN7CollegeD1Ev>
   195d6:	eb 03                	jmp    195db <_Z10initializeR7Company+0xbf6>
   195d8:	48 89 c3             	mov    %rax,%rbx
   195db:	48 8d 85 30 fe ff ff 	lea    -0x1d0(%rbp),%rax
   195e2:	48 89 c7             	mov    %rax,%rdi
   195e5:	e8 78 64 00 00       	call   1fa62 <_ZN5OfferD1Ev>
   195ea:	eb 03                	jmp    195ef <_Z10initializeR7Company+0xc0a>
   195ec:	48 89 c3             	mov    %rax,%rbx
   195ef:	48 8d 85 40 fd ff ff 	lea    -0x2c0(%rbp),%rax
   195f6:	48 89 c7             	mov    %rax,%rdi
   195f9:	e8 82 df ff ff       	call   17580 <_ZNSt7__cxx1112basic_stringIcSt11char_traitsIcESaIcEED1Ev@plt>
   195fe:	48 89 d8             	mov    %rbx,%rax
   19601:	48 89 c7             	mov    %rax,%rdi
   19604:	e8 f7 de ff ff       	call   17500 <_Unwind_Resume@plt>
   19609:	e8 22 dd ff ff       	call   17330 <__stack_chk_fail@plt>
   1960e:	48 8b 5d f8          	mov    -0x8(%rbp),%rbx
   19612:	c9                   	leave  
   19613:	c3                   	ret    

0000000000019614 <main>:
   19614:	55                   	push   %rbp
   19615:	48 89 e5             	mov    %rsp,%rbp
   19618:	41 55                	push   %r13
   1961a:	41 54                	push   %r12
   1961c:	53                   	push   %rbx
   1961d:	48 81 ec 98 05 00 00 	sub    $0x598,%rsp
   19624:	64 48 8b 04 25 28 00 	mov    %fs:0x28,%rax
   1962b:	00 00 
   1962d:	48 89 45 d8          	mov    %rax,-0x28(%rbp)
   19631:	31 c0                	xor    %eax,%eax
   19633:	bf 80 00 00 00       	mov    $0x80,%edi
   19638:	e8 73 dc ff ff       	call   172b0 <_Znwm@plt>
   1963d:	48 89 c3             	mov    %rax,%rbx
   19640:	48 89 de             	mov    %rbx,%rsi
   19643:	b8 00 00 00 00       	mov    $0x0,%eax
   19648:	ba 10 00 00 00       	mov    $0x10,%edx
   1964d:	48 89 f7             	mov    %rsi,%rdi
   19650:	48 89 d1             	mov    %rdx,%rcx
   19653:	f3 48 ab             	rep stos %rax,%es:(%rdi)
   19656:	48 89 df             	mov    %rbx,%rdi
   19659:	e8 dc 67 00 00       	call   1fe3a <_ZN7CompanyC1Ev>
   1965e:	48 89 9d b0 fa ff ff 	mov    %rbx,-0x550(%rbp)
   19665:	48 8b 85 b0 fa ff ff 	mov    -0x550(%rbp),%rax
   1966c:	48 89 c7             	mov    %rax,%rdi
   1966f:	e8 71 f3 ff ff       	call   189e5 <_Z10initializeR7Company>
   19674:	48 8d 85 40 fc ff ff 	lea    -0x3c0(%rbp),%rax
   1967b:	48 89 c7             	mov    %rax,%rdi
   1967e:	e8 7d dd ff ff       	call   17400 <_ZNSt7__cxx1112basic_stringIcSt11char_traitsIcESaIcEEC1Ev@plt>
   19683:	48 8d 85 60 fc ff ff 	lea    -0x3a0(%rbp),%rax
   1968a:	48 89 c7             	mov    %rax,%rdi
   1968d:	e8 6e dd ff ff       	call   17400 <_ZNSt7__cxx1112basic_stringIcSt11char_traitsIcESaIcEEC1Ev@plt>
   19692:	48 8d 85 80 fc ff ff 	lea    -0x380(%rbp),%rax
   19699:	48 89 c7             	mov    %rax,%rdi
   1969c:	e8 5f dd ff ff       	call   17400 <_ZNSt7__cxx1112basic_stringIcSt11char_traitsIcESaIcEEC1Ev@plt>
   196a1:	48 8d 85 a0 fc ff ff 	lea    -0x360(%rbp),%rax
   196a8:	48 89 c7             	mov    %rax,%rdi
   196ab:	e8 50 dd ff ff       	call   17400 <_ZNSt7__cxx1112basic_stringIcSt11char_traitsIcESaIcEEC1Ev@plt>
   196b0:	48 8d 85 c0 fc ff ff 	lea    -0x340(%rbp),%rax
   196b7:	48 89 c7             	mov    %rax,%rdi
   196ba:	e8 41 dd ff ff       	call   17400 <_ZNSt7__cxx1112basic_stringIcSt11char_traitsIcESaIcEEC1Ev@plt>
   196bf:	48 8d 85 e0 fc ff ff 	lea    -0x320(%rbp),%rax
   196c6:	48 89 c7             	mov    %rax,%rdi
   196c9:	e8 32 dd ff ff       	call   17400 <_ZNSt7__cxx1112basic_stringIcSt11char_traitsIcESaIcEEC1Ev@plt>
   196ce:	48 8d 85 00 fd ff ff 	lea    -0x300(%rbp),%rax
   196d5:	48 89 c7             	mov    %rax,%rdi
   196d8:	e8 23 dd ff ff       	call   17400 <_ZNSt7__cxx1112basic_stringIcSt11char_traitsIcESaIcEEC1Ev@plt>
   196dd:	48 8d 85 20 fd ff ff 	lea    -0x2e0(%rbp),%rax
   196e4:	48 89 c7             	mov    %rax,%rdi
   196e7:	e8 14 dd ff ff       	call   17400 <_ZNSt7__cxx1112basic_stringIcSt11char_traitsIcESaIcEEC1Ev@plt>
   196ec:	48 8d 85 40 fd ff ff 	lea    -0x2c0(%rbp),%rax
   196f3:	48 89 c7             	mov    %rax,%rdi
   196f6:	e8 05 dd ff ff       	call   17400 <_ZNSt7__cxx1112basic_stringIcSt11char_traitsIcESaIcEEC1Ev@plt>
   196fb:	48 8d 85 60 fd ff ff 	lea    -0x2a0(%rbp),%rax
   19702:	48 89 c7             	mov    %rax,%rdi
   19705:	e8 f6 dc ff ff       	call   17400 <_ZNSt7__cxx1112basic_stringIcSt11char_traitsIcESaIcEEC1Ev@plt>
   1970a:	48 8d 85 80 fd ff ff 	lea    -0x280(%rbp),%rax
   19711:	48 89 c7             	mov    %rax,%rdi
   19714:	e8 e7 dc ff ff       	call   17400 <_ZNSt7__cxx1112basic_stringIcSt11char_traitsIcESaIcEEC1Ev@plt>
   19719:	48 8d 85 a0 fd ff ff 	lea    -0x260(%rbp),%rax
   19720:	48 89 c7             	mov    %rax,%rdi
   19723:	e8 d8 dc ff ff       	call   17400 <_ZNSt7__cxx1112basic_stringIcSt11char_traitsIcESaIcEEC1Ev@plt>
   19728:	48 8d 85 c0 fd ff ff 	lea    -0x240(%rbp),%rax
   1972f:	48 89 c7             	mov    %rax,%rdi
   19732:	e8 c9 dc ff ff       	call   17400 <_ZNSt7__cxx1112basic_stringIcSt11char_traitsIcESaIcEEC1Ev@plt>
   19737:	48 8d 85 e0 fd ff ff 	lea    -0x220(%rbp),%rax
   1973e:	48 89 c7             	mov    %rax,%rdi
   19741:	e8 ba dc ff ff       	call   17400 <_ZNSt7__cxx1112basic_stringIcSt11char_traitsIcESaIcEEC1Ev@plt>
   19746:	48 8d 85 00 fe ff ff 	lea    -0x200(%rbp),%rax
   1974d:	48 89 c7             	mov    %rax,%rdi
   19750:	e8 ab dc ff ff       	call   17400 <_ZNSt7__cxx1112basic_stringIcSt11char_traitsIcESaIcEEC1Ev@plt>
   19755:	48 8d 85 20 fe ff ff 	lea    -0x1e0(%rbp),%rax
   1975c:	48 89 c7             	mov    %rax,%rdi
   1975f:	e8 9c dc ff ff       	call   17400 <_ZNSt7__cxx1112basic_stringIcSt11char_traitsIcESaIcEEC1Ev@plt>
   19764:	48 8d 05 ed a9 01 00 	lea    0x1a9ed(%rip),%rax        # 34158 <_IO_stdin_used+0x158>
   1976b:	48 89 c6             	mov    %rax,%rsi
   1976e:	48 8d 05 8b 7b 02 00 	lea    0x27b8b(%rip),%rax        # 41300 <_ZSt4cout@@GLIBCXX_3.4>
   19775:	48 89 c7             	mov    %rax,%rdi
   19778:	e8 23 db ff ff       	call   172a0 <_ZStlsISt11char_traitsIcEERSt13basic_ostreamIcT_ES5_PKc@plt>
   1977d:	48 8b 15 34 78 02 00 	mov    0x27834(%rip),%rdx        # 40fb8 <_ZSt4endlIcSt11char_traitsIcEERSt13basic_ostreamIT_T0_ES6_@GLIBCXX_3.4>
   19784:	48 89 d6             	mov    %rdx,%rsi
   19787:	48 89 c7             	mov    %rax,%rdi
   1978a:	e8 51 db ff ff       	call   172e0 <_ZNSolsEPFRSoS_E@plt>
   1978f:	48 8d 05 ea a9 01 00 	lea    0x1a9ea(%rip),%rax        # 34180 <_IO_stdin_used+0x180>
   19796:	48 89 c6             	mov    %rax,%rsi
   19799:	48 8d 05 60 7b 02 00 	lea    0x27b60(%rip),%rax        # 41300 <_ZSt4cout@@GLIBCXX_3.4>
   197a0:	48 89 c7             	mov    %rax,%rdi
   197a3:	e8 f8 da ff ff       	call   172a0 <_ZStlsISt11char_traitsIcEERSt13basic_ostreamIcT_ES5_PKc@plt>
   197a8:	48 8b 15 09 78 02 00 	mov    0x27809(%rip),%rdx        # 40fb8 <_ZSt4endlIcSt11char_traitsIcEERSt13basic_ostreamIT_T0_ES6_@GLIBCXX_3.4>
   197af:	48 89 d6             	mov    %rdx,%rsi
   197b2:	48 89 c7             	mov    %rax,%rdi
   197b5:	e8 26 db ff ff       	call   172e0 <_ZNSolsEPFRSoS_E@plt>
   197ba:	48 8d 05 e7 a9 01 00 	lea    0x1a9e7(%rip),%rax        # 341a8 <_IO_stdin_used+0x1a8>
   197c1:	48 89 c6             	mov    %rax,%rsi
   197c4:	48 8d 05 35 7b 02 00 	lea    0x27b35(%rip),%rax        # 41300 <_ZSt4cout@@GLIBCXX_3.4>
   197cb:	48 89 c7             	mov    %rax,%rdi
   197ce:	e8 cd da ff ff       	call   172a0 <_ZStlsISt11char_traitsIcEERSt13basic_ostreamIcT_ES5_PKc@plt>
   197d3:	48 8d 85 64 fa ff ff 	lea    -0x59c(%rbp),%rax
   197da:	48 89 c6             	mov    %rax,%rsi
   197dd:	48 8d 05 5c 7c 02 00 	lea    0x27c5c(%rip),%rax        # 41440 <_ZSt3cin@@GLIBCXX_3.4>
   197e4:	48 89 c7             	mov    %rax,%rdi
   197e7:	e8 d4 d9 ff ff       	call   171c0 <_ZNSirsERi@plt>
   197ec:	48 8d 05 d7 a9 01 00 	lea    0x1a9d7(%rip),%rax        # 341ca <_IO_stdin_used+0x1ca>
   197f3:	48 89 c6             	mov    %rax,%rsi
   197f6:	48 8d 05 03 7b 02 00 	lea    0x27b03(%rip),%rax        # 41300 <_ZSt4cout@@GLIBCXX_3.4>
   197fd:	48 89 c7             	mov    %rax,%rdi
   19800:	e8 9b da ff ff       	call   172a0 <_ZStlsISt11char_traitsIcEERSt13basic_ostreamIcT_ES5_PKc@plt>
   19805:	8b 85 64 fa ff ff    	mov    -0x59c(%rbp),%eax
   1980b:	83 f8 03             	cmp    $0x3,%eax
   1980e:	0f 84 55 30 00 00    	je     1c869 <main+0x3255>
   19814:	83 f8 03             	cmp    $0x3,%eax
   19817:	0f 8f 52 54 00 00    	jg     1ec6f <main+0x565b>
   1981d:	83 f8 01             	cmp    $0x1,%eax
   19820:	74 0e                	je     19830 <main+0x21c>
   19822:	83 f8 02             	cmp    $0x2,%eax
   19825:	0f 84 fa 0d 00 00    	je     1a625 <main+0x1011>
   1982b:	e9 3f 54 00 00       	jmp    1ec6f <main+0x565b>
   19830:	48 8d 05 96 a9 01 00 	lea    0x1a996(%rip),%rax        # 341cd <_IO_stdin_used+0x1cd>
   19837:	48 89 c6             	mov    %rax,%rsi
   1983a:	48 8d 05 bf 7a 02 00 	lea    0x27abf(%rip),%rax        # 41300 <_ZSt4cout@@GLIBCXX_3.4>
   19841:	48 89 c7             	mov    %rax,%rdi
   19844:	e8 57 da ff ff       	call   172a0 <_ZStlsISt11char_traitsIcEERSt13basic_ostreamIcT_ES5_PKc@plt>
   19849:	48 8b 15 68 77 02 00 	mov    0x27768(%rip),%rdx        # 40fb8 <_ZSt4endlIcSt11char_traitsIcEERSt13basic_ostreamIT_T0_ES6_@GLIBCXX_3.4>
   19850:	48 89 d6             	mov    %rdx,%rsi
   19853:	48 89 c7             	mov    %rax,%rdi
   19856:	e8 85 da ff ff       	call   172e0 <_ZNSolsEPFRSoS_E@plt>
   1985b:	48 8d 05 7f a9 01 00 	lea    0x1a97f(%rip),%rax        # 341e1 <_IO_stdin_used+0x1e1>
   19862:	48 89 c6             	mov    %rax,%rsi
   19865:	48 8d 05 94 7a 02 00 	lea    0x27a94(%rip),%rax        # 41300 <_ZSt4cout@@GLIBCXX_3.4>
   1986c:	48 89 c7             	mov    %rax,%rdi
   1986f:	e8 2c da ff ff       	call   172a0 <_ZStlsISt11char_traitsIcEERSt13basic_ostreamIcT_ES5_PKc@plt>
   19874:	48 8b 15 3d 77 02 00 	mov    0x2773d(%rip),%rdx        # 40fb8 <_ZSt4endlIcSt11char_traitsIcEERSt13basic_ostreamIT_T0_ES6_@GLIBCXX_3.4>
   1987b:	48 89 d6             	mov    %rdx,%rsi
   1987e:	48 89 c7             	mov    %rax,%rdi
   19881:	e8 5a da ff ff       	call   172e0 <_ZNSolsEPFRSoS_E@plt>
   19886:	48 8d 05 60 a9 01 00 	lea    0x1a960(%rip),%rax        # 341ed <_IO_stdin_used+0x1ed>
   1988d:	48 89 c6             	mov    %rax,%rsi
   19890:	48 8d 05 69 7a 02 00 	lea    0x27a69(%rip),%rax        # 41300 <_ZSt4cout@@GLIBCXX_3.4>
   19897:	48 89 c7             	mov    %rax,%rdi
   1989a:	e8 01 da ff ff       	call   172a0 <_ZStlsISt11char_traitsIcEERSt13basic_ostreamIcT_ES5_PKc@plt>
   1989f:	48 8b 15 12 77 02 00 	mov    0x27712(%rip),%rdx        # 40fb8 <_ZSt4endlIcSt11char_traitsIcEERSt13basic_ostreamIT_T0_ES6_@GLIBCXX_3.4>
   198a6:	48 89 d6             	mov    %rdx,%rsi
   198a9:	48 89 c7             	mov    %rax,%rdi
   198ac:	e8 2f da ff ff       	call   172e0 <_ZNSolsEPFRSoS_E@plt>
   198b1:	48 8d 05 44 a9 01 00 	lea    0x1a944(%rip),%rax        # 341fc <_IO_stdin_used+0x1fc>
   198b8:	48 89 c6             	mov    %rax,%rsi
   198bb:	48 8d 05 3e 7a 02 00 	lea    0x27a3e(%rip),%rax        # 41300 <_ZSt4cout@@GLIBCXX_3.4>
   198c2:	48 89 c7             	mov    %rax,%rdi
   198c5:	e8 d6 d9 ff ff       	call   172a0 <_ZStlsISt11char_traitsIcEERSt13basic_ostreamIcT_ES5_PKc@plt>
   198ca:	48 8b 15 e7 76 02 00 	mov    0x276e7(%rip),%rdx        # 40fb8 <_ZSt4endlIcSt11char_traitsIcEERSt13basic_ostreamIT_T0_ES6_@GLIBCXX_3.4>
   198d1:	48 89 d6             	mov    %rdx,%rsi
   198d4:	48 89 c7             	mov    %rax,%rdi
   198d7:	e8 04 da ff ff       	call   172e0 <_ZNSolsEPFRSoS_E@plt>
   198dc:	48 8d 05 2b a9 01 00 	lea    0x1a92b(%rip),%rax        # 3420e <_IO_stdin_used+0x20e>
   198e3:	48 89 c6             	mov    %rax,%rsi
   198e6:	48 8d 05 13 7a 02 00 	lea    0x27a13(%rip),%rax        # 41300 <_ZSt4cout@@GLIBCXX_3.4>
   198ed:	48 89 c7             	mov    %rax,%rdi
   198f0:	e8 ab d9 ff ff       	call   172a0 <_ZStlsISt11char_traitsIcEERSt13basic_ostreamIcT_ES5_PKc@plt>
   198f5:	48 8b 15 bc 76 02 00 	mov    0x276bc(%rip),%rdx        # 40fb8 <_ZSt4endlIcSt11char_traitsIcEERSt13basic_ostreamIT_T0_ES6_@GLIBCXX_3.4>
   198fc:	48 89 d6             	mov    %rdx,%rsi
   198ff:	48 89 c7             	mov    %rax,%rdi
   19902:	e8 d9 d9 ff ff       	call   172e0 <_ZNSolsEPFRSoS_E@plt>
   19907:	48 8d 05 0f a9 01 00 	lea    0x1a90f(%rip),%rax        # 3421d <_IO_stdin_used+0x21d>
   1990e:	48 89 c6             	mov    %rax,%rsi
   19911:	48 8d 05 e8 79 02 00 	lea    0x279e8(%rip),%rax        # 41300 <_ZSt4cout@@GLIBCXX_3.4>
   19918:	48 89 c7             	mov    %rax,%rdi
   1991b:	e8 80 d9 ff ff       	call   172a0 <_ZStlsISt11char_traitsIcEERSt13basic_ostreamIcT_ES5_PKc@plt>
   19920:	48 8b 15 91 76 02 00 	mov    0x27691(%rip),%rdx        # 40fb8 <_ZSt4endlIcSt11char_traitsIcEERSt13basic_ostreamIT_T0_ES6_@GLIBCXX_3.4>
   19927:	48 89 d6             	mov    %rdx,%rsi
   1992a:	48 89 c7             	mov    %rax,%rdi
   1992d:	e8 ae d9 ff ff       	call   172e0 <_ZNSolsEPFRSoS_E@plt>
   19932:	48 8d 05 f7 a8 01 00 	lea    0x1a8f7(%rip),%rax        # 34230 <_IO_stdin_used+0x230>
   19939:	48 89 c6             	mov    %rax,%rsi
   1993c:	48 8d 05 bd 79 02 00 	lea    0x279bd(%rip),%rax        # 41300 <_ZSt4cout@@GLIBCXX_3.4>
   19943:	48 89 c7             	mov    %rax,%rdi
   19946:	e8 55 d9 ff ff       	call   172a0 <_ZStlsISt11char_traitsIcEERSt13basic_ostreamIcT_ES5_PKc@plt>
   1994b:	48 8b 15 66 76 02 00 	mov    0x27666(%rip),%rdx        # 40fb8 <_ZSt4endlIcSt11char_traitsIcEERSt13basic_ostreamIT_T0_ES6_@GLIBCXX_3.4>
   19952:	48 89 d6             	mov    %rdx,%rsi
   19955:	48 89 c7             	mov    %rax,%rdi
   19958:	e8 83 d9 ff ff       	call   172e0 <_ZNSolsEPFRSoS_E@plt>
   1995d:	48 8d 85 68 fa ff ff 	lea    -0x598(%rbp),%rax
   19964:	48 89 c6             	mov    %rax,%rsi
   19967:	48 8d 05 d2 7a 02 00 	lea    0x27ad2(%rip),%rax        # 41440 <_ZSt3cin@@GLIBCXX_3.4>
   1996e:	48 89 c7             	mov    %rax,%rdi
   19971:	e8 4a d8 ff ff       	call   171c0 <_ZNSirsERi@plt>
   19976:	8b 85 68 fa ff ff    	mov    -0x598(%rbp),%eax
   1997c:	83 f8 07             	cmp    $0x7,%eax
   1997f:	0f 87 6f 0c 00 00    	ja     1a5f4 <main+0xfe0>
   19985:	89 c0                	mov    %eax,%eax
   19987:	48 8d 14 85 00 00 00 	lea    0x0(,%rax,4),%rdx
   1998e:	00 
   1998f:	48 8d 05 32 b0 01 00 	lea    0x1b032(%rip),%rax        # 349c8 <_IO_stdin_used+0x9c8>
   19996:	8b 04 02             	mov    (%rdx,%rax,1),%eax
   19999:	48 98                	cltq   
   1999b:	48 8d 15 26 b0 01 00 	lea    0x1b026(%rip),%rdx        # 349c8 <_IO_stdin_used+0x9c8>
   199a2:	48 01 d0             	add    %rdx,%rax
   199a5:	ff e0                	jmp    *%rax
   199a7:	48 8b 85 b0 fa ff ff 	mov    -0x550(%rbp),%rax
   199ae:	48 89 c7             	mov    %rax,%rdi
   199b1:	e8 1e e3 00 00       	call   27cd4 <_ZN7Company7displayEv>
   199b6:	e9 65 0c 00 00       	jmp    1a620 <main+0x100c>
   199bb:	48 8d 05 90 a8 01 00 	lea    0x1a890(%rip),%rax        # 34252 <_IO_stdin_used+0x252>
   199c2:	48 89 c6             	mov    %rax,%rsi
   199c5:	48 8d 05 34 79 02 00 	lea    0x27934(%rip),%rax        # 41300 <_ZSt4cout@@GLIBCXX_3.4>
   199cc:	48 89 c7             	mov    %rax,%rdi
   199cf:	e8 cc d8 ff ff       	call   172a0 <_ZStlsISt11char_traitsIcEERSt13basic_ostreamIcT_ES5_PKc@plt>
   199d4:	48 8d 05 8b a8 01 00 	lea    0x1a88b(%rip),%rax        # 34266 <_IO_stdin_used+0x266>
   199db:	48 89 c6             	mov    %rax,%rsi
   199de:	48 8d 05 1b 79 02 00 	lea    0x2791b(%rip),%rax        # 41300 <_ZSt4cout@@GLIBCXX_3.4>
   199e5:	48 89 c7             	mov    %rax,%rdi
   199e8:	e8 b3 d8 ff ff       	call   172a0 <_ZStlsISt11char_traitsIcEERSt13basic_ostreamIcT_ES5_PKc@plt>
   199ed:	48 8d 85 40 fc ff ff 	lea    -0x3c0(%rbp),%rax
   199f4:	48 89 c6             	mov    %rax,%rsi
   199f7:	48 8d 05 42 7a 02 00 	lea    0x27a42(%rip),%rax        # 41440 <_ZSt3cin@@GLIBCXX_3.4>
   199fe:	48 89 c7             	mov    %rax,%rdi
   19a01:	e8 ba d9 ff ff       	call   173c0 <_ZStrsIcSt11char_traitsIcESaIcEERSt13basic_istreamIT_T0_ES7_RNSt7__cxx1112basic_stringIS4_S5_T1_EE@plt>
   19a06:	48 8d 05 65 a8 01 00 	lea    0x1a865(%rip),%rax        # 34272 <_IO_stdin_used+0x272>
   19a0d:	48 89 c6             	mov    %rax,%rsi
   19a10:	48 8d 05 e9 78 02 00 	lea    0x278e9(%rip),%rax        # 41300 <_ZSt4cout@@GLIBCXX_3.4>
   19a17:	48 89 c7             	mov    %rax,%rdi
   19a1a:	e8 81 d8 ff ff       	call   172a0 <_ZStlsISt11char_traitsIcEERSt13basic_ostreamIcT_ES5_PKc@plt>
   19a1f:	48 8d 85 60 fc ff ff 	lea    -0x3a0(%rbp),%rax
   19a26:	48 89 c6             	mov    %rax,%rsi
   19a29:	48 8d 05 10 7a 02 00 	lea    0x27a10(%rip),%rax        # 41440 <_ZSt3cin@@GLIBCXX_3.4>
   19a30:	48 89 c7             	mov    %rax,%rdi
   19a33:	e8 88 d9 ff ff       	call   173c0 <_ZStrsIcSt11char_traitsIcESaIcEERSt13basic_istreamIT_T0_ES7_RNSt7__cxx1112basic_stringIS4_S5_T1_EE@plt>
   19a38:	48 8d 05 42 a8 01 00 	lea    0x1a842(%rip),%rax        # 34281 <_IO_stdin_used+0x281>
   19a3f:	48 89 c6             	mov    %rax,%rsi
   19a42:	48 8d 05 b7 78 02 00 	lea    0x278b7(%rip),%rax        # 41300 <_ZSt4cout@@GLIBCXX_3.4>
   19a49:	48 89 c7             	mov    %rax,%rdi
   19a4c:	e8 4f d8 ff ff       	call   172a0 <_ZStlsISt11char_traitsIcEERSt13basic_ostreamIcT_ES5_PKc@plt>
   19a51:	48 8d 85 90 fa ff ff 	lea    -0x570(%rbp),%rax
   19a58:	48 89 c6             	mov    %rax,%rsi
   19a5b:	48 8d 05 de 79 02 00 	lea    0x279de(%rip),%rax        # 41440 <_ZSt3cin@@GLIBCXX_3.4>
   19a62:	48 89 c7             	mov    %rax,%rdi
   19a65:	e8 56 d7 ff ff       	call   171c0 <_ZNSirsERi@plt>
   19a6a:	48 8d 05 20 a8 01 00 	lea    0x1a820(%rip),%rax        # 34291 <_IO_stdin_used+0x291>
   19a71:	48 89 c6             	mov    %rax,%rsi
   19a74:	48 8d 05 85 78 02 00 	lea    0x27885(%rip),%rax        # 41300 <_ZSt4cout@@GLIBCXX_3.4>
   19a7b:	48 89 c7             	mov    %rax,%rdi
   19a7e:	e8 1d d8 ff ff       	call   172a0 <_ZStlsISt11char_traitsIcEERSt13basic_ostreamIcT_ES5_PKc@plt>
   19a83:	48 8d 85 94 fa ff ff 	lea    -0x56c(%rbp),%rax
   19a8a:	48 89 c6             	mov    %rax,%rsi
   19a8d:	48 8d 05 ac 79 02 00 	lea    0x279ac(%rip),%rax        # 41440 <_ZSt3cin@@GLIBCXX_3.4>
   19a94:	48 89 c7             	mov    %rax,%rdi
   19a97:	e8 24 d7 ff ff       	call   171c0 <_ZNSirsERi@plt>
   19a9c:	48 8d 05 fd a7 01 00 	lea    0x1a7fd(%rip),%rax        # 342a0 <_IO_stdin_used+0x2a0>
   19aa3:	48 89 c6             	mov    %rax,%rsi
   19aa6:	48 8d 05 53 78 02 00 	lea    0x27853(%rip),%rax        # 41300 <_ZSt4cout@@GLIBCXX_3.4>
   19aad:	48 89 c7             	mov    %rax,%rdi
   19ab0:	e8 eb d7 ff ff       	call   172a0 <_ZStlsISt11char_traitsIcEERSt13basic_ostreamIcT_ES5_PKc@plt>
   19ab5:	48 8d 05 06 a8 01 00 	lea    0x1a806(%rip),%rax        # 342c2 <_IO_stdin_used+0x2c2>
   19abc:	48 89 c6             	mov    %rax,%rsi
   19abf:	48 8d 05 3a 78 02 00 	lea    0x2783a(%rip),%rax        # 41300 <_ZSt4cout@@GLIBCXX_3.4>
   19ac6:	48 89 c7             	mov    %rax,%rdi
   19ac9:	e8 d2 d7 ff ff       	call   172a0 <_ZStlsISt11char_traitsIcEERSt13basic_ostreamIcT_ES5_PKc@plt>
   19ace:	48 8d 85 98 fa ff ff 	lea    -0x568(%rbp),%rax
   19ad5:	48 89 c6             	mov    %rax,%rsi
   19ad8:	48 8d 05 61 79 02 00 	lea    0x27961(%rip),%rax        # 41440 <_ZSt3cin@@GLIBCXX_3.4>
   19adf:	48 89 c7             	mov    %rax,%rdi
   19ae2:	e8 d9 d6 ff ff       	call   171c0 <_ZNSirsERi@plt>
   19ae7:	48 8d 05 df a7 01 00 	lea    0x1a7df(%rip),%rax        # 342cd <_IO_stdin_used+0x2cd>
   19aee:	48 89 c6             	mov    %rax,%rsi
   19af1:	48 8d 05 08 78 02 00 	lea    0x27808(%rip),%rax        # 41300 <_ZSt4cout@@GLIBCXX_3.4>
   19af8:	48 89 c7             	mov    %rax,%rdi
   19afb:	e8 a0 d7 ff ff       	call   172a0 <_ZStlsISt11char_traitsIcEERSt13basic_ostreamIcT_ES5_PKc@plt>
   19b00:	48 8d 85 9c fa ff ff 	lea    -0x564(%rbp),%rax
   19b07:	48 89 c6             	mov    %rax,%rsi
   19b0a:	48 8d 05 2f 79 02 00 	lea    0x2792f(%rip),%rax        # 41440 <_ZSt3cin@@GLIBCXX_3.4>
   19b11:	48 89 c7             	mov    %rax,%rdi
   19b14:	e8 a7 d6 ff ff       	call   171c0 <_ZNSirsERi@plt>
   19b19:	48 8d 05 b8 a7 01 00 	lea    0x1a7b8(%rip),%rax        # 342d8 <_IO_stdin_used+0x2d8>
   19b20:	48 89 c6             	mov    %rax,%rsi
   19b23:	48 8d 05 d6 77 02 00 	lea    0x277d6(%rip),%rax        # 41300 <_ZSt4cout@@GLIBCXX_3.4>
   19b2a:	48 89 c7             	mov    %rax,%rdi
   19b2d:	e8 6e d7 ff ff       	call   172a0 <_ZStlsISt11char_traitsIcEERSt13basic_ostreamIcT_ES5_PKc@plt>
   19b32:	48 8d 85 a0 fa ff ff 	lea    -0x560(%rbp),%rax
   19b39:	48 89 c6             	mov    %rax,%rsi
   19b3c:	48 8d 05 fd 78 02 00 	lea    0x278fd(%rip),%rax        # 41440 <_ZSt3cin@@GLIBCXX_3.4>
   19b43:	48 89 c7             	mov    %rax,%rdi
   19b46:	e8 75 d6 ff ff       	call   171c0 <_ZNSirsERi@plt>
   19b4b:	48 8d 05 93 a7 01 00 	lea    0x1a793(%rip),%rax        # 342e5 <_IO_stdin_used+0x2e5>
   19b52:	48 89 c6             	mov    %rax,%rsi
   19b55:	48 8d 05 a4 77 02 00 	lea    0x277a4(%rip),%rax        # 41300 <_ZSt4cout@@GLIBCXX_3.4>
   19b5c:	48 89 c7             	mov    %rax,%rdi
   19b5f:	e8 3c d7 ff ff       	call   172a0 <_ZStlsISt11char_traitsIcEERSt13basic_ostreamIcT_ES5_PKc@plt>
   19b64:	48 8d 85 a8 fa ff ff 	lea    -0x558(%rbp),%rax
   19b6b:	48 89 c6             	mov    %rax,%rsi
   19b6e:	48 8d 05 cb 78 02 00 	lea    0x278cb(%rip),%rax        # 41440 <_ZSt3cin@@GLIBCXX_3.4>
   19b75:	48 89 c7             	mov    %rax,%rdi
   19b78:	e8 d3 d6 ff ff       	call   17250 <_ZNSirsERd@plt>
   19b7d:	48 8d 05 7c a7 01 00 	lea    0x1a77c(%rip),%rax        # 34300 <_IO_stdin_used+0x300>
   19b84:	48 89 c6             	mov    %rax,%rsi
   19b87:	48 8d 05 72 77 02 00 	lea    0x27772(%rip),%rax        # 41300 <_ZSt4cout@@GLIBCXX_3.4>
   19b8e:	48 89 c7             	mov    %rax,%rdi
   19b91:	e8 0a d7 ff ff       	call   172a0 <_ZStlsISt11char_traitsIcEERSt13basic_ostreamIcT_ES5_PKc@plt>
   19b96:	48 8d 85 80 fa ff ff 	lea    -0x580(%rbp),%rax
   19b9d:	48 89 c6             	mov    %rax,%rsi
   19ba0:	48 8d 05 99 78 02 00 	lea    0x27899(%rip),%rax        # 41440 <_ZSt3cin@@GLIBCXX_3.4>
   19ba7:	48 89 c7             	mov    %rax,%rdi
   19baa:	e8 11 d6 ff ff       	call   171c0 <_ZNSirsERi@plt>
   19baf:	48 89 c2             	mov    %rax,%rdx
   19bb2:	48 8d 85 84 fa ff ff 	lea    -0x57c(%rbp),%rax
   19bb9:	48 89 c6             	mov    %rax,%rsi
   19bbc:	48 89 d7             	mov    %rdx,%rdi
   19bbf:	e8 fc d5 ff ff       	call   171c0 <_ZNSirsERi@plt>
   19bc4:	48 8d 05 59 a7 01 00 	lea    0x1a759(%rip),%rax        # 34324 <_IO_stdin_used+0x324>
   19bcb:	48 89 c6             	mov    %rax,%rsi
   19bce:	48 8d 05 2b 77 02 00 	lea    0x2772b(%rip),%rax        # 41300 <_ZSt4cout@@GLIBCXX_3.4>
   19bd5:	48 89 c7             	mov    %rax,%rdi
   19bd8:	e8 c3 d6 ff ff       	call   172a0 <_ZStlsISt11char_traitsIcEERSt13basic_ostreamIcT_ES5_PKc@plt>
   19bdd:	48 8d 85 88 fa ff ff 	lea    -0x578(%rbp),%rax
   19be4:	48 89 c6             	mov    %rax,%rsi
   19be7:	48 8d 05 52 78 02 00 	lea    0x27852(%rip),%rax        # 41440 <_ZSt3cin@@GLIBCXX_3.4>
   19bee:	48 89 c7             	mov    %rax,%rdi
   19bf1:	e8 ca d5 ff ff       	call   171c0 <_ZNSirsERi@plt>
   19bf6:	48 8d 05 3c a7 01 00 	lea    0x1a73c(%rip),%rax        # 34339 <_IO_stdin_used+0x339>
   19bfd:	48 89 c6             	mov    %rax,%rsi
   19c00:	48 8d 05 f9 76 02 00 	lea    0x276f9(%rip),%rax        # 41300 <_ZSt4cout@@GLIBCXX_3.4>
   19c07:	48 89 c7             	mov    %rax,%rdi
   19c0a:	e8 91 d6 ff ff       	call   172a0 <_ZStlsISt11char_traitsIcEERSt13basic_ostreamIcT_ES5_PKc@plt>
   19c0f:	48 8d 85 8c fa ff ff 	lea    -0x574(%rbp),%rax
   19c16:	48 89 c6             	mov    %rax,%rsi
   19c19:	48 8d 05 20 78 02 00 	lea    0x27820(%rip),%rax        # 41440 <_ZSt3cin@@GLIBCXX_3.4>
   19c20:	48 89 c7             	mov    %rax,%rdi
   19c23:	e8 98 d5 ff ff       	call   171c0 <_ZNSirsERi@plt>
   19c28:	48 8d 85 c0 fc ff ff 	lea    -0x340(%rbp),%rax
   19c2f:	48 8d 15 14 a7 01 00 	lea    0x1a714(%rip),%rdx        # 3434a <_IO_stdin_used+0x34a>
   19c36:	48 89 d6             	mov    %rdx,%rsi
   19c39:	48 89 c7             	mov    %rax,%rdi
   19c3c:	e8 af d7 ff ff       	call   173f0 <_ZNSt7__cxx1112basic_stringIcSt11char_traitsIcESaIcEEaSEPKc@plt>
   19c41:	48 8d 85 c0 fe ff ff 	lea    -0x140(%rbp),%rax
   19c48:	48 8b 95 b0 fa ff ff 	mov    -0x550(%rbp),%rdx
   19c4f:	48 89 d6             	mov    %rdx,%rsi
   19c52:	48 89 c7             	mov    %rax,%rdi
   19c55:	e8 ce d8 00 00       	call   27528 <_ZNK7Company7getNameB5cxx11Ev>
   19c5a:	48 c7 85 d0 fb ff ff 	movq   $0x0,-0x430(%rbp)
   19c61:	00 00 00 00 
   19c65:	48 c7 85 d8 fb ff ff 	movq   $0x0,-0x428(%rbp)
   19c6c:	00 00 00 00 
   19c70:	48 c7 85 e0 fb ff ff 	movq   $0x0,-0x420(%rbp)
   19c77:	00 00 00 00 
   19c7b:	48 8d 85 d0 fb ff ff 	lea    -0x430(%rbp),%rax
   19c82:	48 89 c7             	mov    %rax,%rdi
   19c85:	e8 bc 5d 00 00       	call   1fa46 <_ZNSt6vectorI7CollegeSaIS0_EEC1Ev>
   19c8a:	48 8d 95 c0 fc ff ff 	lea    -0x340(%rbp),%rdx
   19c91:	48 8d 85 60 fe ff ff 	lea    -0x1a0(%rbp),%rax
   19c98:	48 89 d6             	mov    %rdx,%rsi
   19c9b:	48 89 c7             	mov    %rax,%rdi
   19c9e:	e8 8d d4 ff ff       	call   17130 <_ZNSt7__cxx1112basic_stringIcSt11char_traitsIcESaIcEEC1ERKS4_@plt>
   19ca3:	44 8b 85 8c fa ff ff 	mov    -0x574(%rbp),%r8d
   19caa:	8b 8d 88 fa ff ff    	mov    -0x578(%rbp),%ecx
   19cb0:	8b 95 84 fa ff ff    	mov    -0x57c(%rbp),%edx
   19cb6:	8b b5 80 fa ff ff    	mov    -0x580(%rbp),%esi
   19cbc:	48 8b bd a8 fa ff ff 	mov    -0x558(%rbp),%rdi
   19cc3:	4c 8d 8d 60 fe ff ff 	lea    -0x1a0(%rbp),%r9
   19cca:	48 8d 85 f0 fb ff ff 	lea    -0x410(%rbp),%rax
   19cd1:	66 48 0f 6e c7       	movq   %rdi,%xmm0
   19cd6:	48 89 c7             	mov    %rax,%rdi
   19cd9:	e8 b8 06 01 00       	call   2a396 <_ZN11EligibilityC1EdiiiiNSt7__cxx1112basic_stringIcSt11char_traitsIcESaIcEEE>
   19cde:	8b 8d a0 fa ff ff    	mov    -0x560(%rbp),%ecx
   19ce4:	8b 95 9c fa ff ff    	mov    -0x564(%rbp),%edx
   19cea:	8b b5 98 fa ff ff    	mov    -0x568(%rbp),%esi
   19cf0:	48 8d 85 c4 fb ff ff 	lea    -0x43c(%rbp),%rax
   19cf7:	48 89 c7             	mov    %rax,%rdi
   19cfa:	e8 e3 04 01 00       	call   2a1e2 <_ZN4DateC1Eiii>
   19cff:	8b 85 94 fa ff ff    	mov    -0x56c(%rbp),%eax
   19d05:	66 0f ef d2          	pxor   %xmm2,%xmm2
   19d09:	f3 0f 2a d0          	cvtsi2ss %eax,%xmm2
   19d0d:	f3 0f 11 95 5c fa ff 	movss  %xmm2,-0x5a4(%rbp)
   19d14:	ff 
   19d15:	8b 85 90 fa ff ff    	mov    -0x570(%rbp),%eax
   19d1b:	66 0f ef db          	pxor   %xmm3,%xmm3
   19d1f:	f3 0f 2a d8          	cvtsi2ss %eax,%xmm3
   19d23:	66 0f 7e db          	movd   %xmm3,%ebx
   19d27:	48 8d 95 60 fc ff ff 	lea    -0x3a0(%rbp),%rdx
   19d2e:	48 8d 85 a0 fe ff ff 	lea    -0x160(%rbp),%rax
   19d35:	48 89 d6             	mov    %rdx,%rsi
   19d38:	48 89 c7             	mov    %rax,%rdi
   19d3b:	e8 f0 d3 ff ff       	call   17130 <_ZNSt7__cxx1112basic_stringIcSt11char_traitsIcESaIcEEC1ERKS4_@plt>
   19d40:	48 8d 95 40 fc ff ff 	lea    -0x3c0(%rbp),%rdx
   19d47:	48 8d 85 80 fe ff ff 	lea    -0x180(%rbp),%rax
   19d4e:	48 89 d6             	mov    %rdx,%rsi
   19d51:	48 89 c7             	mov    %rax,%rdi
   19d54:	e8 d7 d3 ff ff       	call   17130 <_ZNSt7__cxx1112basic_stringIcSt11char_traitsIcESaIcEEC1ERKS4_@plt>
   19d59:	4c 8d 8d f0 fb ff ff 	lea    -0x410(%rbp),%r9
   19d60:	48 8b 8d c4 fb ff ff 	mov    -0x43c(%rbp),%rcx
   19d67:	44 8b 85 cc fb ff ff 	mov    -0x434(%rbp),%r8d
   19d6e:	48 8d 95 a0 fe ff ff 	lea    -0x160(%rbp),%rdx
   19d75:	48 8d b5 80 fe ff ff 	lea    -0x180(%rbp),%rsi
   19d7c:	48 8d 85 e0 fe ff ff 	lea    -0x120(%rbp),%rax
   19d83:	48 83 ec 08          	sub    $0x8,%rsp
   19d87:	48 8d bd d0 fb ff ff 	lea    -0x430(%rbp),%rdi
   19d8e:	57                   	push   %rdi
   19d8f:	f3 0f 10 8d 5c fa ff 	movss  -0x5a4(%rbp),%xmm1
   19d96:	ff 
   19d97:	66 0f 6e c3          	movd   %ebx,%xmm0
   19d9b:	48 89 c7             	mov    %rax,%rdi
   19d9e:	e8 55 29 01 00       	call   2c6f8 <_ZN5OfferC1ENSt7__cxx1112basic_stringIcSt11char_traitsIcESaIcEEES5_ff4DateRK11EligibilitySt6vectorI7CollegeSaISB_EE>
   19da3:	48 83 c4 10          	add    $0x10,%rsp
   19da7:	48 8d 95 c0 fe ff ff 	lea    -0x140(%rbp),%rdx
   19dae:	48 8d 8d e0 fe ff ff 	lea    -0x120(%rbp),%rcx
   19db5:	48 8b 85 b0 fa ff ff 	mov    -0x550(%rbp),%rax
   19dbc:	48 89 ce             	mov    %rcx,%rsi
   19dbf:	48 89 c7             	mov    %rax,%rdi
   19dc2:	e8 71 c8 00 00       	call   26638 <_ZN7Company8setOfferE5OfferNSt7__cxx1112basic_stringIcSt11char_traitsIcESaIcEEE>
   19dc7:	48 8d 85 e0 fe ff ff 	lea    -0x120(%rbp),%rax
   19dce:	48 89 c7             	mov    %rax,%rdi
   19dd1:	e8 8c 5c 00 00       	call   1fa62 <_ZN5OfferD1Ev>
   19dd6:	48 8d 85 80 fe ff ff 	lea    -0x180(%rbp),%rax
   19ddd:	48 89 c7             	mov    %rax,%rdi
   19de0:	e8 9b d7 ff ff       	call   17580 <_ZNSt7__cxx1112basic_stringIcSt11char_traitsIcESaIcEED1Ev@plt>
   19de5:	48 8d 85 a0 fe ff ff 	lea    -0x160(%rbp),%rax
   19dec:	48 89 c7             	mov    %rax,%rdi
   19def:	e8 8c d7 ff ff       	call   17580 <_ZNSt7__cxx1112basic_stringIcSt11char_traitsIcESaIcEED1Ev@plt>
   19df4:	48 8d 85 f0 fb ff ff 	lea    -0x410(%rbp),%rax
   19dfb:	48 89 c7             	mov    %rax,%rdi
   19dfe:	e8 eb 5b 00 00       	call   1f9ee <_ZN11EligibilityD1Ev>
   19e03:	48 8d 85 60 fe ff ff 	lea    -0x1a0(%rbp),%rax
   19e0a:	48 89 c7             	mov    %rax,%rdi
   19e0d:	e8 6e d7 ff ff       	call   17580 <_ZNSt7__cxx1112basic_stringIcSt11char_traitsIcESaIcEED1Ev@plt>
   19e12:	48 8d 85 d0 fb ff ff 	lea    -0x430(%rbp),%rax
   19e19:	48 89 c7             	mov    %rax,%rdi
   19e1c:	e8 cf 65 00 00       	call   203f0 <_ZNSt6vectorI7CollegeSaIS0_EED1Ev>
   19e21:	48 8d 85 c0 fe ff ff 	lea    -0x140(%rbp),%rax
   19e28:	48 89 c7             	mov    %rax,%rdi
   19e2b:	e8 50 d7 ff ff       	call   17580 <_ZNSt7__cxx1112basic_stringIcSt11char_traitsIcESaIcEED1Ev@plt>
   19e30:	e9 eb 07 00 00       	jmp    1a620 <main+0x100c>
   19e35:	c7 85 a4 fa ff ff 00 	movl   $0x0,-0x55c(%rbp)
   19e3c:	00 00 00 
   19e3f:	48 8d 05 11 a5 01 00 	lea    0x1a511(%rip),%rax        # 34357 <_IO_stdin_used+0x357>
   19e46:	48 89 c6             	mov    %rax,%rsi
   19e49:	48 8d 05 b0 74 02 00 	lea    0x274b0(%rip),%rax        # 41300 <_ZSt4cout@@GLIBCXX_3.4>
   19e50:	48 89 c7             	mov    %rax,%rdi
   19e53:	e8 48 d4 ff ff       	call   172a0 <_ZStlsISt11char_traitsIcEERSt13basic_ostreamIcT_ES5_PKc@plt>
   19e58:	48 8b 15 59 71 02 00 	mov    0x27159(%rip),%rdx        # 40fb8 <_ZSt4endlIcSt11char_traitsIcEERSt13basic_ostreamIT_T0_ES6_@GLIBCXX_3.4>
   19e5f:	48 89 d6             	mov    %rdx,%rsi
   19e62:	48 89 c7             	mov    %rax,%rdi
   19e65:	e8 76 d4 ff ff       	call   172e0 <_ZNSolsEPFRSoS_E@plt>
   19e6a:	48 8b 85 b0 fa ff ff 	mov    -0x550(%rbp),%rax
   19e71:	48 89 c7             	mov    %rax,%rdi
   19e74:	e8 39 d7 00 00       	call   275b2 <_ZN7Company9getOffersEv>
   19e79:	48 89 85 b8 fb ff ff 	mov    %rax,-0x448(%rbp)
   19e80:	48 8b 85 b8 fb ff ff 	mov    -0x448(%rbp),%rax
   19e87:	48 89 c7             	mov    %rax,%rdi
   19e8a:	e8 07 67 00 00       	call   20596 <_ZNSt6vectorI5OfferSaIS0_EE5beginEv>
   19e8f:	48 89 85 d0 fb ff ff 	mov    %rax,-0x430(%rbp)
   19e96:	48 8b 85 b8 fb ff ff 	mov    -0x448(%rbp),%rax
   19e9d:	48 89 c7             	mov    %rax,%rdi
   19ea0:	e8 39 67 00 00       	call   205de <_ZNSt6vectorI5OfferSaIS0_EE3endEv>
   19ea5:	48 89 85 f0 fb ff ff 	mov    %rax,-0x410(%rbp)
   19eac:	e9 16 01 00 00       	jmp    19fc7 <main+0x9b3>
   19eb1:	48 8d 85 d0 fb ff ff 	lea    -0x430(%rbp),%rax
   19eb8:	48 89 c7             	mov    %rax,%rdi
   19ebb:	e8 ca 67 00 00       	call   2068a <_ZNK9__gnu_cxx17__normal_iteratorIP5OfferSt6vectorIS1_SaIS1_EEEdeEv>
   19ec0:	48 89 c2             	mov    %rax,%rdx
   19ec3:	48 8d 85 e0 fe ff ff 	lea    -0x120(%rbp),%rax
   19eca:	48 89 d6             	mov    %rdx,%rsi
   19ecd:	48 89 c7             	mov    %rax,%rdi
   19ed0:	e8 8f 2a 01 00       	call   2c964 <_ZN5OfferC1ERKS_>
   19ed5:	8b 85 a4 fa ff ff    	mov    -0x55c(%rbp),%eax
   19edb:	89 c6                	mov    %eax,%esi
   19edd:	48 8d 05 1c 74 02 00 	lea    0x2741c(%rip),%rax        # 41300 <_ZSt4cout@@GLIBCXX_3.4>
   19ee4:	48 89 c7             	mov    %rax,%rdi
   19ee7:	e8 f4 d5 ff ff       	call   174e0 <_ZNSolsEi@plt>
   19eec:	48 89 c2             	mov    %rax,%rdx
   19eef:	48 8d 05 7c a4 01 00 	lea    0x1a47c(%rip),%rax        # 34372 <_IO_stdin_used+0x372>
   19ef6:	48 89 c6             	mov    %rax,%rsi
   19ef9:	48 89 d7             	mov    %rdx,%rdi
   19efc:	e8 9f d3 ff ff       	call   172a0 <_ZStlsISt11char_traitsIcEERSt13basic_ostreamIcT_ES5_PKc@plt>
   19f01:	48 89 c3             	mov    %rax,%rbx
   19f04:	48 8d 85 a0 fe ff ff 	lea    -0x160(%rbp),%rax
   19f0b:	48 8d 95 e0 fe ff ff 	lea    -0x120(%rbp),%rdx
   19f12:	48 89 d6             	mov    %rdx,%rsi
   19f15:	48 89 c7             	mov    %rax,%rdi
   19f18:	e8 1d 34 01 00       	call   2d33a <_ZNK5Offer10getJobRoleB5cxx11Ev>
   19f1d:	48 8d 85 a0 fe ff ff 	lea    -0x160(%rbp),%rax
   19f24:	48 89 c6             	mov    %rax,%rsi
   19f27:	48 89 df             	mov    %rbx,%rdi
   19f2a:	e8 51 d3 ff ff       	call   17280 <_ZStlsIcSt11char_traitsIcESaIcEERSt13basic_ostreamIT_T0_ES7_RKNSt7__cxx1112basic_stringIS4_S5_T1_EE@plt>
   19f2f:	48 89 c2             	mov    %rax,%rdx
   19f32:	48 8d 05 39 a4 01 00 	lea    0x1a439(%rip),%rax        # 34372 <_IO_stdin_used+0x372>
   19f39:	48 89 c6             	mov    %rax,%rsi
   19f3c:	48 89 d7             	mov    %rdx,%rdi
   19f3f:	e8 5c d3 ff ff       	call   172a0 <_ZStlsISt11char_traitsIcEERSt13basic_ostreamIcT_ES5_PKc@plt>
   19f44:	48 89 c3             	mov    %rax,%rbx
   19f47:	48 8d 85 c0 fe ff ff 	lea    -0x140(%rbp),%rax
   19f4e:	48 8d 95 e0 fe ff ff 	lea    -0x120(%rbp),%rdx
   19f55:	48 89 d6             	mov    %rdx,%rsi
   19f58:	48 89 c7             	mov    %rax,%rdi
   19f5b:	e8 18 34 01 00       	call   2d378 <_ZNK5Offer14getJobLocationB5cxx11Ev>
   19f60:	48 8d 85 c0 fe ff ff 	lea    -0x140(%rbp),%rax
   19f67:	48 89 c6             	mov    %rax,%rsi
   19f6a:	48 89 df             	mov    %rbx,%rdi
   19f6d:	e8 0e d3 ff ff       	call   17280 <_ZStlsIcSt11char_traitsIcESaIcEERSt13basic_ostreamIT_T0_ES7_RKNSt7__cxx1112basic_stringIS4_S5_T1_EE@plt>
   19f72:	48 8b 15 3f 70 02 00 	mov    0x2703f(%rip),%rdx        # 40fb8 <_ZSt4endlIcSt11char_traitsIcEERSt13basic_ostreamIT_T0_ES6_@GLIBCXX_3.4>
   19f79:	48 89 d6             	mov    %rdx,%rsi
   19f7c:	48 89 c7             	mov    %rax,%rdi
   19f7f:	e8 5c d3 ff ff       	call   172e0 <_ZNSolsEPFRSoS_E@plt>
   19f84:	48 8d 85 c0 fe ff ff 	lea    -0x140(%rbp),%rax
   19f8b:	48 89 c7             	mov    %rax,%rdi
   19f8e:	e8 ed d5 ff ff       	call   17580 <_ZNSt7__cxx1112basic_stringIcSt11char_traitsIcESaIcEED1Ev@plt>
   19f93:	48 8d 85 a0 fe ff ff 	lea    -0x160(%rbp),%rax
   19f9a:	48 89 c7             	mov    %rax,%rdi
   19f9d:	e8 de d5 ff ff       	call   17580 <_ZNSt7__cxx1112basic_stringIcSt11char_traitsIcESaIcEED1Ev@plt>
   19fa2:	83 85 a4 fa ff ff 01 	addl   $0x1,-0x55c(%rbp)
   19fa9:	48 8d 85 e0 fe ff ff 	lea    -0x120(%rbp),%rax
   19fb0:	48 89 c7             	mov    %rax,%rdi
   19fb3:	e8 aa 5a 00 00       	call   1fa62 <_ZN5OfferD1Ev>
   19fb8:	48 8d 85 d0 fb ff ff 	lea    -0x430(%rbp),%rax
   19fbf:	48 89 c7             	mov    %rax,%rdi
   19fc2:	e8 9f 66 00 00       	call   20666 <_ZN9__gnu_cxx17__normal_iteratorIP5OfferSt6vectorIS1_SaIS1_EEEppEv>
   19fc7:	48 8d 95 f0 fb ff ff 	lea    -0x410(%rbp),%rdx
   19fce:	48 8d 85 d0 fb ff ff 	lea    -0x430(%rbp),%rax
   19fd5:	48 89 d6             	mov    %rdx,%rsi
   19fd8:	48 89 c7             	mov    %rax,%rdi
   19fdb:	e8 4a 66 00 00       	call   2062a <_ZN9__gnu_cxxneIP5OfferSt6vectorIS1_SaIS1_EEEEbRKNS_17__normal_iteratorIT_T0_EESB_>
   19fe0:	84 c0                	test   %al,%al
   19fe2:	0f 85 c9 fe ff ff    	jne    19eb1 <main+0x89d>
   19fe8:	48 8d 05 89 a3 01 00 	lea    0x1a389(%rip),%rax        # 34378 <_IO_stdin_used+0x378>
   19fef:	48 89 c6             	mov    %rax,%rsi
   19ff2:	48 8d 05 07 73 02 00 	lea    0x27307(%rip),%rax        # 41300 <_ZSt4cout@@GLIBCXX_3.4>
   19ff9:	48 89 c7             	mov    %rax,%rdi
   19ffc:	e8 9f d2 ff ff       	call   172a0 <_ZStlsISt11char_traitsIcEERSt13basic_ostreamIcT_ES5_PKc@plt>
   1a001:	48 8d 85 6c fa ff ff 	lea    -0x594(%rbp),%rax
   1a008:	48 89 c6             	mov    %rax,%rsi
   1a00b:	48 8d 05 2e 74 02 00 	lea    0x2742e(%rip),%rax        # 41440 <_ZSt3cin@@GLIBCXX_3.4>
   1a012:	48 89 c7             	mov    %rax,%rdi
   1a015:	e8 a6 d1 ff ff       	call   171c0 <_ZNSirsERi@plt>
   1a01a:	48 8d 05 87 a3 01 00 	lea    0x1a387(%rip),%rax        # 343a8 <_IO_stdin_used+0x3a8>
   1a021:	48 89 c6             	mov    %rax,%rsi
   1a024:	48 8d 05 d5 72 02 00 	lea    0x272d5(%rip),%rax        # 41300 <_ZSt4cout@@GLIBCXX_3.4>
   1a02b:	48 89 c7             	mov    %rax,%rdi
   1a02e:	e8 6d d2 ff ff       	call   172a0 <_ZStlsISt11char_traitsIcEERSt13basic_ostreamIcT_ES5_PKc@plt>
   1a033:	48 8d 85 20 fe ff ff 	lea    -0x1e0(%rbp),%rax
   1a03a:	48 89 c6             	mov    %rax,%rsi
   1a03d:	48 8d 05 fc 73 02 00 	lea    0x273fc(%rip),%rax        # 41440 <_ZSt3cin@@GLIBCXX_3.4>
   1a044:	48 89 c7             	mov    %rax,%rdi
   1a047:	e8 74 d3 ff ff       	call   173c0 <_ZStrsIcSt11char_traitsIcESaIcEERSt13basic_istreamIT_T0_ES7_RNSt7__cxx1112basic_stringIS4_S5_T1_EE@plt>
   1a04c:	48 8b 85 b0 fa ff ff 	mov    -0x550(%rbp),%rax
   1a053:	48 89 c7             	mov    %rax,%rdi
   1a056:	e8 57 d5 00 00       	call   275b2 <_ZN7Company9getOffersEv>
   1a05b:	48 89 c2             	mov    %rax,%rdx
   1a05e:	8b 85 6c fa ff ff    	mov    -0x594(%rbp),%eax
   1a064:	48 98                	cltq   
   1a066:	48 89 c6             	mov    %rax,%rsi
   1a069:	48 89 d7             	mov    %rdx,%rdi
   1a06c:	e8 c7 60 00 00       	call   20138 <_ZNSt6vectorI5OfferSaIS0_EE2atEm>
   1a071:	48 89 c2             	mov    %rax,%rdx
   1a074:	8b 85 6c fa ff ff    	mov    -0x594(%rbp),%eax
   1a07a:	83 c0 01             	add    $0x1,%eax
   1a07d:	89 c6                	mov    %eax,%esi
   1a07f:	48 89 d7             	mov    %rdx,%rdi
   1a082:	e8 61 31 01 00       	call   2d1e8 <_ZN5Offer10setOfferIdEi>
   1a087:	48 8b 85 b0 fa ff ff 	mov    -0x550(%rbp),%rax
   1a08e:	48 89 c7             	mov    %rax,%rdi
   1a091:	e8 1c d5 00 00       	call   275b2 <_ZN7Company9getOffersEv>
   1a096:	48 89 c2             	mov    %rax,%rdx
   1a099:	8b 85 6c fa ff ff    	mov    -0x594(%rbp),%eax
   1a09f:	48 98                	cltq   
   1a0a1:	48 89 c6             	mov    %rax,%rsi
   1a0a4:	48 89 d7             	mov    %rdx,%rdi
   1a0a7:	e8 8c 60 00 00       	call   20138 <_ZNSt6vectorI5OfferSaIS0_EE2atEm>
   1a0ac:	48 89 c3             	mov    %rax,%rbx
   1a0af:	48 8d 95 20 fe ff ff 	lea    -0x1e0(%rbp),%rdx
   1a0b6:	48 8d 85 e0 fe ff ff 	lea    -0x120(%rbp),%rax
   1a0bd:	48 89 d6             	mov    %rdx,%rsi
   1a0c0:	48 89 c7             	mov    %rax,%rdi
   1a0c3:	e8 68 d0 ff ff       	call   17130 <_ZNSt7__cxx1112basic_stringIcSt11char_traitsIcESaIcEEC1ERKS4_@plt>
   1a0c8:	48 8d 85 e0 fe ff ff 	lea    -0x120(%rbp),%rax
   1a0cf:	48 89 c6             	mov    %rax,%rsi
   1a0d2:	48 89 df             	mov    %rbx,%rdi
   1a0d5:	e8 2e 3e 01 00       	call   2df08 <_ZN5Offer11updateOfferENSt7__cxx1112basic_stringIcSt11char_traitsIcESaIcEEE>
   1a0da:	48 8d 85 e0 fe ff ff 	lea    -0x120(%rbp),%rax
   1a0e1:	48 89 c7             	mov    %rax,%rdi
   1a0e4:	e8 97 d4 ff ff       	call   17580 <_ZNSt7__cxx1112basic_stringIcSt11char_traitsIcESaIcEED1Ev@plt>
   1a0e9:	48 8d 05 e0 a2 01 00 	lea    0x1a2e0(%rip),%rax        # 343d0 <_IO_stdin_used+0x3d0>
   1a0f0:	48 89 c6             	mov    %rax,%rsi
   1a0f3:	48 8d 05 06 72 02 00 	lea    0x27206(%rip),%rax        # 41300 <_ZSt4cout@@GLIBCXX_3.4>
   1a0fa:	48 89 c7             	mov    %rax,%rdi
   1a0fd:	e8 9e d1 ff ff       	call   172a0 <_ZStlsISt11char_traitsIcEERSt13basic_ostreamIcT_ES5_PKc@plt>
   1a102:	e9 19 05 00 00       	jmp    1a620 <main+0x100c>
   1a107:	c7 85 a4 fa ff ff 00 	movl   $0x0,-0x55c(%rbp)
   1a10e:	00 00 00 
   1a111:	48 8d 05 3f a2 01 00 	lea    0x1a23f(%rip),%rax        # 34357 <_IO_stdin_used+0x357>
   1a118:	48 89 c6             	mov    %rax,%rsi
   1a11b:	48 8d 05 de 71 02 00 	lea    0x271de(%rip),%rax        # 41300 <_ZSt4cout@@GLIBCXX_3.4>
   1a122:	48 89 c7             	mov    %rax,%rdi
   1a125:	e8 76 d1 ff ff       	call   172a0 <_ZStlsISt11char_traitsIcEERSt13basic_ostreamIcT_ES5_PKc@plt>
   1a12a:	48 8b 15 87 6e 02 00 	mov    0x26e87(%rip),%rdx        # 40fb8 <_ZSt4endlIcSt11char_traitsIcEERSt13basic_ostreamIT_T0_ES6_@GLIBCXX_3.4>
   1a131:	48 89 d6             	mov    %rdx,%rsi
   1a134:	48 89 c7             	mov    %rax,%rdi
   1a137:	e8 a4 d1 ff ff       	call   172e0 <_ZNSolsEPFRSoS_E@plt>
   1a13c:	48 8b 85 b0 fa ff ff 	mov    -0x550(%rbp),%rax
   1a143:	48 89 c7             	mov    %rax,%rdi
   1a146:	e8 67 d4 00 00       	call   275b2 <_ZN7Company9getOffersEv>
   1a14b:	48 89 85 b0 fb ff ff 	mov    %rax,-0x450(%rbp)
   1a152:	48 8b 85 b0 fb ff ff 	mov    -0x450(%rbp),%rax
   1a159:	48 89 c7             	mov    %rax,%rdi
   1a15c:	e8 35 64 00 00       	call   20596 <_ZNSt6vectorI5OfferSaIS0_EE5beginEv>
   1a161:	48 89 85 d0 fb ff ff 	mov    %rax,-0x430(%rbp)
   1a168:	48 8b 85 b0 fb ff ff 	mov    -0x450(%rbp),%rax
   1a16f:	48 89 c7             	mov    %rax,%rdi
   1a172:	e8 67 64 00 00       	call   205de <_ZNSt6vectorI5OfferSaIS0_EE3endEv>
   1a177:	48 89 85 f0 fb ff ff 	mov    %rax,-0x410(%rbp)
   1a17e:	e9 16 01 00 00       	jmp    1a299 <main+0xc85>
   1a183:	48 8d 85 d0 fb ff ff 	lea    -0x430(%rbp),%rax
   1a18a:	48 89 c7             	mov    %rax,%rdi
   1a18d:	e8 f8 64 00 00       	call   2068a <_ZNK9__gnu_cxx17__normal_iteratorIP5OfferSt6vectorIS1_SaIS1_EEEdeEv>
   1a192:	48 89 c2             	mov    %rax,%rdx
   1a195:	48 8d 85 e0 fe ff ff 	lea    -0x120(%rbp),%rax
   1a19c:	48 89 d6             	mov    %rdx,%rsi
   1a19f:	48 89 c7             	mov    %rax,%rdi
   1a1a2:	e8 bd 27 01 00       	call   2c964 <_ZN5OfferC1ERKS_>
   1a1a7:	8b 85 a4 fa ff ff    	mov    -0x55c(%rbp),%eax
   1a1ad:	89 c6                	mov    %eax,%esi
   1a1af:	48 8d 05 4a 71 02 00 	lea    0x2714a(%rip),%rax        # 41300 <_ZSt4cout@@GLIBCXX_3.4>
   1a1b6:	48 89 c7             	mov    %rax,%rdi
   1a1b9:	e8 22 d3 ff ff       	call   174e0 <_ZNSolsEi@plt>
   1a1be:	48 89 c2             	mov    %rax,%rdx
   1a1c1:	48 8d 05 aa a1 01 00 	lea    0x1a1aa(%rip),%rax        # 34372 <_IO_stdin_used+0x372>
   1a1c8:	48 89 c6             	mov    %rax,%rsi
   1a1cb:	48 89 d7             	mov    %rdx,%rdi
   1a1ce:	e8 cd d0 ff ff       	call   172a0 <_ZStlsISt11char_traitsIcEERSt13basic_ostreamIcT_ES5_PKc@plt>
   1a1d3:	48 89 c3             	mov    %rax,%rbx
   1a1d6:	48 8d 85 a0 fe ff ff 	lea    -0x160(%rbp),%rax
   1a1dd:	48 8d 95 e0 fe ff ff 	lea    -0x120(%rbp),%rdx
   1a1e4:	48 89 d6             	mov    %rdx,%rsi
   1a1e7:	48 89 c7             	mov    %rax,%rdi
   1a1ea:	e8 4b 31 01 00       	call   2d33a <_ZNK5Offer10getJobRoleB5cxx11Ev>
   1a1ef:	48 8d 85 a0 fe ff ff 	lea    -0x160(%rbp),%rax
   1a1f6:	48 89 c6             	mov    %rax,%rsi
   1a1f9:	48 89 df             	mov    %rbx,%rdi
   1a1fc:	e8 7f d0 ff ff       	call   17280 <_ZStlsIcSt11char_traitsIcESaIcEERSt13basic_ostreamIT_T0_ES7_RKNSt7__cxx1112basic_stringIS4_S5_T1_EE@plt>
   1a201:	48 89 c2             	mov    %rax,%rdx
   1a204:	48 8d 05 67 a1 01 00 	lea    0x1a167(%rip),%rax        # 34372 <_IO_stdin_used+0x372>
   1a20b:	48 89 c6             	mov    %rax,%rsi
   1a20e:	48 89 d7             	mov    %rdx,%rdi
   1a211:	e8 8a d0 ff ff       	call   172a0 <_ZStlsISt11char_traitsIcEERSt13basic_ostreamIcT_ES5_PKc@plt>
   1a216:	48 89 c3             	mov    %rax,%rbx
   1a219:	48 8d 85 c0 fe ff ff 	lea    -0x140(%rbp),%rax
   1a220:	48 8d 95 e0 fe ff ff 	lea    -0x120(%rbp),%rdx
   1a227:	48 89 d6             	mov    %rdx,%rsi
   1a22a:	48 89 c7             	mov    %rax,%rdi
   1a22d:	e8 46 31 01 00       	call   2d378 <_ZNK5Offer14getJobLocationB5cxx11Ev>
   1a232:	48 8d 85 c0 fe ff ff 	lea    -0x140(%rbp),%rax
   1a239:	48 89 c6             	mov    %rax,%rsi
   1a23c:	48 89 df             	mov    %rbx,%rdi
   1a23f:	e8 3c d0 ff ff       	call   17280 <_ZStlsIcSt11char_traitsIcESaIcEERSt13basic_ostreamIT_T0_ES7_RKNSt7__cxx1112basic_stringIS4_S5_T1_EE@plt>
   1a244:	48 8b 15 6d 6d 02 00 	mov    0x26d6d(%rip),%rdx        # 40fb8 <_ZSt4endlIcSt11char_traitsIcEERSt13basic_ostreamIT_T0_ES6_@GLIBCXX_3.4>
   1a24b:	48 89 d6             	mov    %rdx,%rsi
   1a24e:	48 89 c7             	mov    %rax,%rdi
   1a251:	e8 8a d0 ff ff       	call   172e0 <_ZNSolsEPFRSoS_E@plt>
   1a256:	48 8d 85 c0 fe ff ff 	lea    -0x140(%rbp),%rax
   1a25d:	48 89 c7             	mov    %rax,%rdi
   1a260:	e8 1b d3 ff ff       	call   17580 <_ZNSt7__cxx1112basic_stringIcSt11char_traitsIcESaIcEED1Ev@plt>
   1a265:	48 8d 85 a0 fe ff ff 	lea    -0x160(%rbp),%rax
   1a26c:	48 89 c7             	mov    %rax,%rdi
   1a26f:	e8 0c d3 ff ff       	call   17580 <_ZNSt7__cxx1112basic_stringIcSt11char_traitsIcESaIcEED1Ev@plt>
   1a274:	83 85 a4 fa ff ff 01 	addl   $0x1,-0x55c(%rbp)
   1a27b:	48 8d 85 e0 fe ff ff 	lea    -0x120(%rbp),%rax
   1a282:	48 89 c7             	mov    %rax,%rdi
   1a285:	e8 d8 57 00 00       	call   1fa62 <_ZN5OfferD1Ev>
   1a28a:	48 8d 85 d0 fb ff ff 	lea    -0x430(%rbp),%rax
   1a291:	48 89 c7             	mov    %rax,%rdi
   1a294:	e8 cd 63 00 00       	call   20666 <_ZN9__gnu_cxx17__normal_iteratorIP5OfferSt6vectorIS1_SaIS1_EEEppEv>
   1a299:	48 8d 95 f0 fb ff ff 	lea    -0x410(%rbp),%rdx
   1a2a0:	48 8d 85 d0 fb ff ff 	lea    -0x430(%rbp),%rax
   1a2a7:	48 89 d6             	mov    %rdx,%rsi
   1a2aa:	48 89 c7             	mov    %rax,%rdi
   1a2ad:	e8 78 63 00 00       	call   2062a <_ZN9__gnu_cxxneIP5OfferSt6vectorIS1_SaIS1_EEEEbRKNS_17__normal_iteratorIT_T0_EESB_>
   1a2b2:	84 c0                	test   %al,%al
   1a2b4:	0f 85 c9 fe ff ff    	jne    1a183 <main+0xb6f>
   1a2ba:	48 8d 05 29 a1 01 00 	lea    0x1a129(%rip),%rax        # 343ea <_IO_stdin_used+0x3ea>
   1a2c1:	48 89 c6             	mov    %rax,%rsi
   1a2c4:	48 8d 05 35 70 02 00 	lea    0x27035(%rip),%rax        # 41300 <_ZSt4cout@@GLIBCXX_3.4>
   1a2cb:	48 89 c7             	mov    %rax,%rdi
   1a2ce:	e8 cd cf ff ff       	call   172a0 <_ZStlsISt11char_traitsIcEERSt13basic_ostreamIcT_ES5_PKc@plt>
   1a2d3:	48 8d 85 6c fa ff ff 	lea    -0x594(%rbp),%rax
   1a2da:	48 89 c6             	mov    %rax,%rsi
   1a2dd:	48 8d 05 5c 71 02 00 	lea    0x2715c(%rip),%rax        # 41440 <_ZSt3cin@@GLIBCXX_3.4>
   1a2e4:	48 89 c7             	mov    %rax,%rdi
   1a2e7:	e8 d4 ce ff ff       	call   171c0 <_ZNSirsERi@plt>
   1a2ec:	48 8b 85 b0 fa ff ff 	mov    -0x550(%rbp),%rax
   1a2f3:	48 89 c7             	mov    %rax,%rdi
   1a2f6:	e8 b7 d2 00 00       	call   275b2 <_ZN7Company9getOffersEv>
   1a2fb:	48 89 c2             	mov    %rax,%rdx
   1a2fe:	8b 85 6c fa ff ff    	mov    -0x594(%rbp),%eax
   1a304:	48 98                	cltq   
   1a306:	48 89 c6             	mov    %rax,%rsi
   1a309:	48 89 d7             	mov    %rdx,%rdi
   1a30c:	e8 27 5e 00 00       	call   20138 <_ZNSt6vectorI5OfferSaIS0_EE2atEm>
   1a311:	48 89 c7             	mov    %rax,%rdi
   1a314:	e8 09 31 01 00       	call   2d422 <_ZN5Offer7displayEv>
   1a319:	e9 02 03 00 00       	jmp    1a620 <main+0x100c>
   1a31e:	48 8d 85 c0 fe ff ff 	lea    -0x140(%rbp),%rax
   1a325:	48 89 c7             	mov    %rax,%rdi
   1a328:	e8 d3 d0 ff ff       	call   17400 <_ZNSt7__cxx1112basic_stringIcSt11char_traitsIcESaIcEEC1Ev@plt>
   1a32d:	48 8d 05 cc a0 01 00 	lea    0x1a0cc(%rip),%rax        # 34400 <_IO_stdin_used+0x400>
   1a334:	48 89 c6             	mov    %rax,%rsi
   1a337:	48 8d 05 c2 6f 02 00 	lea    0x26fc2(%rip),%rax        # 41300 <_ZSt4cout@@GLIBCXX_3.4>
   1a33e:	48 89 c7             	mov    %rax,%rdi
   1a341:	e8 5a cf ff ff       	call   172a0 <_ZStlsISt11char_traitsIcEERSt13basic_ostreamIcT_ES5_PKc@plt>
   1a346:	48 8d 85 c0 fe ff ff 	lea    -0x140(%rbp),%rax
   1a34d:	48 89 c6             	mov    %rax,%rsi
   1a350:	48 8d 05 e9 70 02 00 	lea    0x270e9(%rip),%rax        # 41440 <_ZSt3cin@@GLIBCXX_3.4>
   1a357:	48 89 c7             	mov    %rax,%rdi
   1a35a:	e8 61 d0 ff ff       	call   173c0 <_ZStrsIcSt11char_traitsIcESaIcEERSt13basic_istreamIT_T0_ES7_RNSt7__cxx1112basic_stringIS4_S5_T1_EE@plt>
   1a35f:	48 8d 95 c0 fe ff ff 	lea    -0x140(%rbp),%rdx
   1a366:	48 8d 85 e0 fe ff ff 	lea    -0x120(%rbp),%rax
   1a36d:	48 89 d6             	mov    %rdx,%rsi
   1a370:	48 89 c7             	mov    %rax,%rdi
   1a373:	e8 b8 cd ff ff       	call   17130 <_ZNSt7__cxx1112basic_stringIcSt11char_traitsIcESaIcEEC1ERKS4_@plt>
   1a378:	48 8d 95 e0 fe ff ff 	lea    -0x120(%rbp),%rdx
   1a37f:	48 8b 85 b0 fa ff ff 	mov    -0x550(%rbp),%rax
   1a386:	48 89 d6             	mov    %rdx,%rsi
   1a389:	48 89 c7             	mov    %rax,%rdi
   1a38c:	e8 09 db 00 00       	call   27e9a <_ZN7Company6searchENSt7__cxx1112basic_stringIcSt11char_traitsIcESaIcEEE>
   1a391:	48 89 85 a8 fb ff ff 	mov    %rax,-0x458(%rbp)
   1a398:	48 8d 85 e0 fe ff ff 	lea    -0x120(%rbp),%rax
   1a39f:	48 89 c7             	mov    %rax,%rdi
   1a3a2:	e8 d9 d1 ff ff       	call   17580 <_ZNSt7__cxx1112basic_stringIcSt11char_traitsIcESaIcEED1Ev@plt>
   1a3a7:	48 8b 85 a8 fb ff ff 	mov    -0x458(%rbp),%rax
   1a3ae:	48 89 c7             	mov    %rax,%rdi
   1a3b1:	e8 6c 30 01 00       	call   2d422 <_ZN5Offer7displayEv>
   1a3b6:	48 8d 85 c0 fe ff ff 	lea    -0x140(%rbp),%rax
   1a3bd:	48 89 c7             	mov    %rax,%rdi
   1a3c0:	e8 bb d1 ff ff       	call   17580 <_ZNSt7__cxx1112basic_stringIcSt11char_traitsIcESaIcEED1Ev@plt>
   1a3c5:	e9 56 02 00 00       	jmp    1a620 <main+0x100c>
   1a3ca:	48 8b 85 b0 fa ff ff 	mov    -0x550(%rbp),%rax
   1a3d1:	48 89 c7             	mov    %rax,%rdi
   1a3d4:	e8 33 dc 00 00       	call   2800c <_ZN7Company4sortEv>
   1a3d9:	e9 42 02 00 00       	jmp    1a620 <main+0x100c>
   1a3de:	c7 85 a4 fa ff ff 00 	movl   $0x0,-0x55c(%rbp)
   1a3e5:	00 00 00 
   1a3e8:	48 8d 05 68 9f 01 00 	lea    0x19f68(%rip),%rax        # 34357 <_IO_stdin_used+0x357>
   1a3ef:	48 89 c6             	mov    %rax,%rsi
   1a3f2:	48 8d 05 07 6f 02 00 	lea    0x26f07(%rip),%rax        # 41300 <_ZSt4cout@@GLIBCXX_3.4>
   1a3f9:	48 89 c7             	mov    %rax,%rdi
   1a3fc:	e8 9f ce ff ff       	call   172a0 <_ZStlsISt11char_traitsIcEERSt13basic_ostreamIcT_ES5_PKc@plt>
   1a401:	48 8b 15 b0 6b 02 00 	mov    0x26bb0(%rip),%rdx        # 40fb8 <_ZSt4endlIcSt11char_traitsIcEERSt13basic_ostreamIT_T0_ES6_@GLIBCXX_3.4>
   1a408:	48 89 d6             	mov    %rdx,%rsi
   1a40b:	48 89 c7             	mov    %rax,%rdi
   1a40e:	e8 cd ce ff ff       	call   172e0 <_ZNSolsEPFRSoS_E@plt>
   1a413:	48 8b 85 b0 fa ff ff 	mov    -0x550(%rbp),%rax
   1a41a:	48 89 c7             	mov    %rax,%rdi
   1a41d:	e8 90 d1 00 00       	call   275b2 <_ZN7Company9getOffersEv>
   1a422:	48 89 85 a0 fb ff ff 	mov    %rax,-0x460(%rbp)
   1a429:	48 8b 85 a0 fb ff ff 	mov    -0x460(%rbp),%rax
   1a430:	48 89 c7             	mov    %rax,%rdi
   1a433:	e8 5e 61 00 00       	call   20596 <_ZNSt6vectorI5OfferSaIS0_EE5beginEv>
   1a438:	48 89 85 d0 fb ff ff 	mov    %rax,-0x430(%rbp)
   1a43f:	48 8b 85 a0 fb ff ff 	mov    -0x460(%rbp),%rax
   1a446:	48 89 c7             	mov    %rax,%rdi
   1a449:	e8 90 61 00 00       	call   205de <_ZNSt6vectorI5OfferSaIS0_EE3endEv>
   1a44e:	48 89 85 f0 fb ff ff 	mov    %rax,-0x410(%rbp)
   1a455:	e9 2b 01 00 00       	jmp    1a585 <main+0xf71>
   1a45a:	48 8d 85 d0 fb ff ff 	lea    -0x430(%rbp),%rax
   1a461:	48 89 c7             	mov    %rax,%rdi
   1a464:	e8 21 62 00 00       	call   2068a <_ZNK9__gnu_cxx17__normal_iteratorIP5OfferSt6vectorIS1_SaIS1_EEEdeEv>
   1a469:	48 89 c2             	mov    %rax,%rdx
   1a46c:	48 8d 85 e0 fe ff ff 	lea    -0x120(%rbp),%rax
   1a473:	48 89 d6             	mov    %rdx,%rsi
   1a476:	48 89 c7             	mov    %rax,%rdi
   1a479:	e8 e6 24 01 00       	call   2c964 <_ZN5OfferC1ERKS_>
   1a47e:	8b 85 a4 fa ff ff    	mov    -0x55c(%rbp),%eax
   1a484:	89 c6                	mov    %eax,%esi
   1a486:	48 8d 05 73 6e 02 00 	lea    0x26e73(%rip),%rax        # 41300 <_ZSt4cout@@GLIBCXX_3.4>
   1a48d:	48 89 c7             	mov    %rax,%rdi
   1a490:	e8 4b d0 ff ff       	call   174e0 <_ZNSolsEi@plt>
   1a495:	48 89 c2             	mov    %rax,%rdx
   1a498:	48 8d 05 d3 9e 01 00 	lea    0x19ed3(%rip),%rax        # 34372 <_IO_stdin_used+0x372>
   1a49f:	48 89 c6             	mov    %rax,%rsi
   1a4a2:	48 89 d7             	mov    %rdx,%rdi
   1a4a5:	e8 f6 cd ff ff       	call   172a0 <_ZStlsISt11char_traitsIcEERSt13basic_ostreamIcT_ES5_PKc@plt>
   1a4aa:	48 89 c3             	mov    %rax,%rbx
   1a4ad:	48 8d 85 a0 fe ff ff 	lea    -0x160(%rbp),%rax
   1a4b4:	48 8d 95 e0 fe ff ff 	lea    -0x120(%rbp),%rdx
   1a4bb:	48 89 d6             	mov    %rdx,%rsi
   1a4be:	48 89 c7             	mov    %rax,%rdi
   1a4c1:	e8 74 2e 01 00       	call   2d33a <_ZNK5Offer10getJobRoleB5cxx11Ev>
   1a4c6:	48 8d 85 a0 fe ff ff 	lea    -0x160(%rbp),%rax
   1a4cd:	48 89 c6             	mov    %rax,%rsi
   1a4d0:	48 89 df             	mov    %rbx,%rdi
   1a4d3:	e8 a8 cd ff ff       	call   17280 <_ZStlsIcSt11char_traitsIcESaIcEERSt13basic_ostreamIT_T0_ES7_RKNSt7__cxx1112basic_stringIS4_S5_T1_EE@plt>
   1a4d8:	48 89 c2             	mov    %rax,%rdx
   1a4db:	48 8d 05 90 9e 01 00 	lea    0x19e90(%rip),%rax        # 34372 <_IO_stdin_used+0x372>
   1a4e2:	48 89 c6             	mov    %rax,%rsi
   1a4e5:	48 89 d7             	mov    %rdx,%rdi
   1a4e8:	e8 b3 cd ff ff       	call   172a0 <_ZStlsISt11char_traitsIcEERSt13basic_ostreamIcT_ES5_PKc@plt>
   1a4ed:	48 89 c3             	mov    %rax,%rbx
   1a4f0:	48 8d 85 c0 fe ff ff 	lea    -0x140(%rbp),%rax
   1a4f7:	48 8d 95 e0 fe ff ff 	lea    -0x120(%rbp),%rdx
   1a4fe:	48 89 d6             	mov    %rdx,%rsi
   1a501:	48 89 c7             	mov    %rax,%rdi
   1a504:	e8 6f 2e 01 00       	call   2d378 <_ZNK5Offer14getJobLocationB5cxx11Ev>
   1a509:	48 8d 85 c0 fe ff ff 	lea    -0x140(%rbp),%rax
   1a510:	48 89 c6             	mov    %rax,%rsi
   1a513:	48 89 df             	mov    %rbx,%rdi
   1a516:	e8 65 cd ff ff       	call   17280 <_ZStlsIcSt11char_traitsIcESaIcEERSt13basic_ostreamIT_T0_ES7_RKNSt7__cxx1112basic_stringIS4_S5_T1_EE@plt>
   1a51b:	48 89 c2             	mov    %rax,%rdx
   1a51e:	48 8d 05 4d 9e 01 00 	lea    0x19e4d(%rip),%rax        # 34372 <_IO_stdin_used+0x372>
   1a525:	48 89 c6             	mov    %rax,%rsi
   1a528:	48 89 d7             	mov    %rdx,%rdi
   1a52b:	e8 70 cd ff ff       	call   172a0 <_ZStlsISt11char_traitsIcEERSt13basic_ostreamIcT_ES5_PKc@plt>
   1a530:	48 8b 15 81 6a 02 00 	mov    0x26a81(%rip),%rdx        # 40fb8 <_ZSt4endlIcSt11char_traitsIcEERSt13basic_ostreamIT_T0_ES6_@GLIBCXX_3.4>
   1a537:	48 89 d6             	mov    %rdx,%rsi
   1a53a:	48 89 c7             	mov    %rax,%rdi
   1a53d:	e8 9e cd ff ff       	call   172e0 <_ZNSolsEPFRSoS_E@plt>
   1a542:	48 8d 85 c0 fe ff ff 	lea    -0x140(%rbp),%rax
   1a549:	48 89 c7             	mov    %rax,%rdi
   1a54c:	e8 2f d0 ff ff       	call   17580 <_ZNSt7__cxx1112basic_stringIcSt11char_traitsIcESaIcEED1Ev@plt>
   1a551:	48 8d 85 a0 fe ff ff 	lea    -0x160(%rbp),%rax
   1a558:	48 89 c7             	mov    %rax,%rdi
   1a55b:	e8 20 d0 ff ff       	call   17580 <_ZNSt7__cxx1112basic_stringIcSt11char_traitsIcESaIcEED1Ev@plt>
   1a560:	83 85 a4 fa ff ff 01 	addl   $0x1,-0x55c(%rbp)
   1a567:	48 8d 85 e0 fe ff ff 	lea    -0x120(%rbp),%rax
   1a56e:	48 89 c7             	mov    %rax,%rdi
   1a571:	e8 ec 54 00 00       	call   1fa62 <_ZN5OfferD1Ev>
   1a576:	48 8d 85 d0 fb ff ff 	lea    -0x430(%rbp),%rax
   1a57d:	48 89 c7             	mov    %rax,%rdi
   1a580:	e8 e1 60 00 00       	call   20666 <_ZN9__gnu_cxx17__normal_iteratorIP5OfferSt6vectorIS1_SaIS1_EEEppEv>
   1a585:	48 8d 95 f0 fb ff ff 	lea    -0x410(%rbp),%rdx
   1a58c:	48 8d 85 d0 fb ff ff 	lea    -0x430(%rbp),%rax
   1a593:	48 89 d6             	mov    %rdx,%rsi
   1a596:	48 89 c7             	mov    %rax,%rdi
   1a599:	e8 8c 60 00 00       	call   2062a <_ZN9__gnu_cxxneIP5OfferSt6vectorIS1_SaIS1_EEEEbRKNS_17__normal_iteratorIT_T0_EESB_>
   1a59e:	84 c0                	test   %al,%al
   1a5a0:	0f 85 b4 fe ff ff    	jne    1a45a <main+0xe46>
   1a5a6:	48 8d 05 83 9e 01 00 	lea    0x19e83(%rip),%rax        # 34430 <_IO_stdin_used+0x430>
   1a5ad:	48 89 c6             	mov    %rax,%rsi
   1a5b0:	48 8d 05 49 6d 02 00 	lea    0x26d49(%rip),%rax        # 41300 <_ZSt4cout@@GLIBCXX_3.4>
   1a5b7:	48 89 c7             	mov    %rax,%rdi
   1a5ba:	e8 e1 cc ff ff       	call   172a0 <_ZStlsISt11char_traitsIcEERSt13basic_ostreamIcT_ES5_PKc@plt>
   1a5bf:	48 8d 85 6c fa ff ff 	lea    -0x594(%rbp),%rax
   1a5c6:	48 89 c6             	mov    %rax,%rsi
   1a5c9:	48 8d 05 70 6e 02 00 	lea    0x26e70(%rip),%rax        # 41440 <_ZSt3cin@@GLIBCXX_3.4>
   1a5d0:	48 89 c7             	mov    %rax,%rdi
   1a5d3:	e8 e8 cb ff ff       	call   171c0 <_ZNSirsERi@plt>
   1a5d8:	8b 85 6c fa ff ff    	mov    -0x594(%rbp),%eax
   1a5de:	8d 50 01             	lea    0x1(%rax),%edx
   1a5e1:	48 8b 85 b0 fa ff ff 	mov    -0x550(%rbp),%rax
   1a5e8:	89 d6                	mov    %edx,%esi
   1a5ea:	48 89 c7             	mov    %rax,%rdi
   1a5ed:	e8 58 d4 00 00       	call   27a4a <_ZN7Company19showAppliedStudentsEi>
   1a5f2:	eb 2c                	jmp    1a620 <main+0x100c>
   1a5f4:	48 8d 05 61 9e 01 00 	lea    0x19e61(%rip),%rax        # 3445c <_IO_stdin_used+0x45c>
   1a5fb:	48 89 c6             	mov    %rax,%rsi
   1a5fe:	48 8d 05 fb 6c 02 00 	lea    0x26cfb(%rip),%rax        # 41300 <_ZSt4cout@@GLIBCXX_3.4>
   1a605:	48 89 c7             	mov    %rax,%rdi
   1a608:	e8 93 cc ff ff       	call   172a0 <_ZStlsISt11char_traitsIcEERSt13basic_ostreamIcT_ES5_PKc@plt>
   1a60d:	48 8b 15 a4 69 02 00 	mov    0x269a4(%rip),%rdx        # 40fb8 <_ZSt4endlIcSt11char_traitsIcEERSt13basic_ostreamIT_T0_ES6_@GLIBCXX_3.4>
   1a614:	48 89 d6             	mov    %rdx,%rsi
   1a617:	48 89 c7             	mov    %rax,%rdi
   1a61a:	e8 c1 cc ff ff       	call   172e0 <_ZNSolsEPFRSoS_E@plt>
   1a61f:	90                   	nop
   1a620:	e9 76 46 00 00       	jmp    1ec9b <main+0x5687>
   1a625:	48 8d 05 40 9e 01 00 	lea    0x19e40(%rip),%rax        # 3446c <_IO_stdin_used+0x46c>
   1a62c:	48 89 c6             	mov    %rax,%rsi
   1a62f:	48 8d 05 ca 6c 02 00 	lea    0x26cca(%rip),%rax        # 41300 <_ZSt4cout@@GLIBCXX_3.4>
   1a636:	48 89 c7             	mov    %rax,%rdi
   1a639:	e8 62 cc ff ff       	call   172a0 <_ZStlsISt11char_traitsIcEERSt13basic_ostreamIcT_ES5_PKc@plt>
   1a63e:	48 8b 15 73 69 02 00 	mov    0x26973(%rip),%rdx        # 40fb8 <_ZSt4endlIcSt11char_traitsIcEERSt13basic_ostreamIT_T0_ES6_@GLIBCXX_3.4>
   1a645:	48 89 d6             	mov    %rdx,%rsi
   1a648:	48 89 c7             	mov    %rax,%rdi
   1a64b:	e8 90 cc ff ff       	call   172e0 <_ZNSolsEPFRSoS_E@plt>
   1a650:	48 8d 05 2d 9e 01 00 	lea    0x19e2d(%rip),%rax        # 34484 <_IO_stdin_used+0x484>
   1a657:	48 89 c6             	mov    %rax,%rsi
   1a65a:	48 8d 05 9f 6c 02 00 	lea    0x26c9f(%rip),%rax        # 41300 <_ZSt4cout@@GLIBCXX_3.4>
   1a661:	48 89 c7             	mov    %rax,%rdi
   1a664:	e8 37 cc ff ff       	call   172a0 <_ZStlsISt11char_traitsIcEERSt13basic_ostreamIcT_ES5_PKc@plt>
   1a669:	48 8b 15 48 69 02 00 	mov    0x26948(%rip),%rdx        # 40fb8 <_ZSt4endlIcSt11char_traitsIcEERSt13basic_ostreamIT_T0_ES6_@GLIBCXX_3.4>
   1a670:	48 89 d6             	mov    %rdx,%rsi
   1a673:	48 89 c7             	mov    %rax,%rdi
   1a676:	e8 65 cc ff ff       	call   172e0 <_ZNSolsEPFRSoS_E@plt>
   1a67b:	48 8d 05 19 9e 01 00 	lea    0x19e19(%rip),%rax        # 3449b <_IO_stdin_used+0x49b>
   1a682:	48 89 c6             	mov    %rax,%rsi
   1a685:	48 8d 05 74 6c 02 00 	lea    0x26c74(%rip),%rax        # 41300 <_ZSt4cout@@GLIBCXX_3.4>
   1a68c:	48 89 c7             	mov    %rax,%rdi
   1a68f:	e8 0c cc ff ff       	call   172a0 <_ZStlsISt11char_traitsIcEERSt13basic_ostreamIcT_ES5_PKc@plt>
   1a694:	48 8b 15 1d 69 02 00 	mov    0x2691d(%rip),%rdx        # 40fb8 <_ZSt4endlIcSt11char_traitsIcEERSt13basic_ostreamIT_T0_ES6_@GLIBCXX_3.4>
   1a69b:	48 89 d6             	mov    %rdx,%rsi
   1a69e:	48 89 c7             	mov    %rax,%rdi
   1a6a1:	e8 3a cc ff ff       	call   172e0 <_ZNSolsEPFRSoS_E@plt>
   1a6a6:	48 8d 05 07 9e 01 00 	lea    0x19e07(%rip),%rax        # 344b4 <_IO_stdin_used+0x4b4>
   1a6ad:	48 89 c6             	mov    %rax,%rsi
   1a6b0:	48 8d 05 49 6c 02 00 	lea    0x26c49(%rip),%rax        # 41300 <_ZSt4cout@@GLIBCXX_3.4>
   1a6b7:	48 89 c7             	mov    %rax,%rdi
   1a6ba:	e8 e1 cb ff ff       	call   172a0 <_ZStlsISt11char_traitsIcEERSt13basic_ostreamIcT_ES5_PKc@plt>
   1a6bf:	48 8b 15 f2 68 02 00 	mov    0x268f2(%rip),%rdx        # 40fb8 <_ZSt4endlIcSt11char_traitsIcEERSt13basic_ostreamIT_T0_ES6_@GLIBCXX_3.4>
   1a6c6:	48 89 d6             	mov    %rdx,%rsi
   1a6c9:	48 89 c7             	mov    %rax,%rdi
   1a6cc:	e8 0f cc ff ff       	call   172e0 <_ZNSolsEPFRSoS_E@plt>
   1a6d1:	48 8d 05 f2 9d 01 00 	lea    0x19df2(%rip),%rax        # 344ca <_IO_stdin_used+0x4ca>
   1a6d8:	48 89 c6             	mov    %rax,%rsi
   1a6db:	48 8d 05 1e 6c 02 00 	lea    0x26c1e(%rip),%rax        # 41300 <_ZSt4cout@@GLIBCXX_3.4>
   1a6e2:	48 89 c7             	mov    %rax,%rdi
   1a6e5:	e8 b6 cb ff ff       	call   172a0 <_ZStlsISt11char_traitsIcEERSt13basic_ostreamIcT_ES5_PKc@plt>
   1a6ea:	48 8b 15 c7 68 02 00 	mov    0x268c7(%rip),%rdx        # 40fb8 <_ZSt4endlIcSt11char_traitsIcEERSt13basic_ostreamIT_T0_ES6_@GLIBCXX_3.4>
   1a6f1:	48 89 d6             	mov    %rdx,%rsi
   1a6f4:	48 89 c7             	mov    %rax,%rdi
   1a6f7:	e8 e4 cb ff ff       	call   172e0 <_ZNSolsEPFRSoS_E@plt>
   1a6fc:	48 8d 05 db 9d 01 00 	lea    0x19ddb(%rip),%rax        # 344de <_IO_stdin_used+0x4de>
   1a703:	48 89 c6             	mov    %rax,%rsi
   1a706:	48 8d 05 f3 6b 02 00 	lea    0x26bf3(%rip),%rax        # 41300 <_ZSt4cout@@GLIBCXX_3.4>
   1a70d:	48 89 c7             	mov    %rax,%rdi
   1a710:	e8 8b cb ff ff       	call   172a0 <_ZStlsISt11char_traitsIcEERSt13basic_ostreamIcT_ES5_PKc@plt>
   1a715:	48 8b 15 9c 68 02 00 	mov    0x2689c(%rip),%rdx        # 40fb8 <_ZSt4endlIcSt11char_traitsIcEERSt13basic_ostreamIT_T0_ES6_@GLIBCXX_3.4>
   1a71c:	48 89 d6             	mov    %rdx,%rsi
   1a71f:	48 89 c7             	mov    %rax,%rdi
   1a722:	e8 b9 cb ff ff       	call   172e0 <_ZNSolsEPFRSoS_E@plt>
   1a727:	48 8d 05 c2 9d 01 00 	lea    0x19dc2(%rip),%rax        # 344f0 <_IO_stdin_used+0x4f0>
   1a72e:	48 89 c6             	mov    %rax,%rsi
   1a731:	48 8d 05 c8 6b 02 00 	lea    0x26bc8(%rip),%rax        # 41300 <_ZSt4cout@@GLIBCXX_3.4>
   1a738:	48 89 c7             	mov    %rax,%rdi
   1a73b:	e8 60 cb ff ff       	call   172a0 <_ZStlsISt11char_traitsIcEERSt13basic_ostreamIcT_ES5_PKc@plt>
   1a740:	48 8b 15 71 68 02 00 	mov    0x26871(%rip),%rdx        # 40fb8 <_ZSt4endlIcSt11char_traitsIcEERSt13basic_ostreamIT_T0_ES6_@GLIBCXX_3.4>
   1a747:	48 89 d6             	mov    %rdx,%rsi
   1a74a:	48 89 c7             	mov    %rax,%rdi
   1a74d:	e8 8e cb ff ff       	call   172e0 <_ZNSolsEPFRSoS_E@plt>
   1a752:	48 8d 05 b2 9d 01 00 	lea    0x19db2(%rip),%rax        # 3450b <_IO_stdin_used+0x50b>
   1a759:	48 89 c6             	mov    %rax,%rsi
   1a75c:	48 8d 05 9d 6b 02 00 	lea    0x26b9d(%rip),%rax        # 41300 <_ZSt4cout@@GLIBCXX_3.4>
   1a763:	48 89 c7             	mov    %rax,%rdi
   1a766:	e8 35 cb ff ff       	call   172a0 <_ZStlsISt11char_traitsIcEERSt13basic_ostreamIcT_ES5_PKc@plt>
   1a76b:	48 8b 15 46 68 02 00 	mov    0x26846(%rip),%rdx        # 40fb8 <_ZSt4endlIcSt11char_traitsIcEERSt13basic_ostreamIT_T0_ES6_@GLIBCXX_3.4>
   1a772:	48 89 d6             	mov    %rdx,%rsi
   1a775:	48 89 c7             	mov    %rax,%rdi
   1a778:	e8 63 cb ff ff       	call   172e0 <_ZNSolsEPFRSoS_E@plt>
   1a77d:	48 8d 85 74 fa ff ff 	lea    -0x58c(%rbp),%rax
   1a784:	48 89 c6             	mov    %rax,%rsi
   1a787:	48 8d 05 b2 6c 02 00 	lea    0x26cb2(%rip),%rax        # 41440 <_ZSt3cin@@GLIBCXX_3.4>
   1a78e:	48 89 c7             	mov    %rax,%rdi
   1a791:	e8 2a ca ff ff       	call   171c0 <_ZNSirsERi@plt>
   1a796:	8b 85 74 fa ff ff    	mov    -0x58c(%rbp),%eax
   1a79c:	83 f8 08             	cmp    $0x8,%eax
   1a79f:	0f 87 93 20 00 00    	ja     1c838 <main+0x3224>
   1a7a5:	89 c0                	mov    %eax,%eax
   1a7a7:	48 8d 14 85 00 00 00 	lea    0x0(,%rax,4),%rdx
   1a7ae:	00 
   1a7af:	48 8d 05 32 a2 01 00 	lea    0x1a232(%rip),%rax        # 349e8 <_IO_stdin_used+0x9e8>
   1a7b6:	8b 04 02             	mov    (%rdx,%rax,1),%eax
   1a7b9:	48 98                	cltq   
   1a7bb:	48 8d 15 26 a2 01 00 	lea    0x1a226(%rip),%rdx        # 349e8 <_IO_stdin_used+0x9e8>
   1a7c2:	48 01 d0             	add    %rdx,%rax
   1a7c5:	ff e0                	jmp    *%rax
   1a7c7:	48 8d 05 89 9b 01 00 	lea    0x19b89(%rip),%rax        # 34357 <_IO_stdin_used+0x357>
   1a7ce:	48 89 c6             	mov    %rax,%rsi
   1a7d1:	48 8d 05 28 6b 02 00 	lea    0x26b28(%rip),%rax        # 41300 <_ZSt4cout@@GLIBCXX_3.4>
   1a7d8:	48 89 c7             	mov    %rax,%rdi
   1a7db:	e8 c0 ca ff ff       	call   172a0 <_ZStlsISt11char_traitsIcEERSt13basic_ostreamIcT_ES5_PKc@plt>
   1a7e0:	48 8b 15 d1 67 02 00 	mov    0x267d1(%rip),%rdx        # 40fb8 <_ZSt4endlIcSt11char_traitsIcEERSt13basic_ostreamIT_T0_ES6_@GLIBCXX_3.4>
   1a7e7:	48 89 d6             	mov    %rdx,%rsi
   1a7ea:	48 89 c7             	mov    %rax,%rdi
   1a7ed:	e8 ee ca ff ff       	call   172e0 <_ZNSolsEPFRSoS_E@plt>
   1a7f2:	c7 85 a4 fa ff ff 00 	movl   $0x0,-0x55c(%rbp)
   1a7f9:	00 00 00 
   1a7fc:	48 8b 85 b0 fa ff ff 	mov    -0x550(%rbp),%rax
   1a803:	48 89 c7             	mov    %rax,%rdi
   1a806:	e8 a7 cd 00 00       	call   275b2 <_ZN7Company9getOffersEv>
   1a80b:	48 89 85 98 fb ff ff 	mov    %rax,-0x468(%rbp)
   1a812:	48 8b 85 98 fb ff ff 	mov    -0x468(%rbp),%rax
   1a819:	48 89 c7             	mov    %rax,%rdi
   1a81c:	e8 75 5d 00 00       	call   20596 <_ZNSt6vectorI5OfferSaIS0_EE5beginEv>
   1a821:	48 89 85 d0 fb ff ff 	mov    %rax,-0x430(%rbp)
   1a828:	48 8b 85 98 fb ff ff 	mov    -0x468(%rbp),%rax
   1a82f:	48 89 c7             	mov    %rax,%rdi
   1a832:	e8 a7 5d 00 00       	call   205de <_ZNSt6vectorI5OfferSaIS0_EE3endEv>
   1a837:	48 89 85 f0 fb ff ff 	mov    %rax,-0x410(%rbp)
   1a83e:	e9 16 01 00 00       	jmp    1a959 <main+0x1345>
   1a843:	48 8d 85 d0 fb ff ff 	lea    -0x430(%rbp),%rax
   1a84a:	48 89 c7             	mov    %rax,%rdi
   1a84d:	e8 38 5e 00 00       	call   2068a <_ZNK9__gnu_cxx17__normal_iteratorIP5OfferSt6vectorIS1_SaIS1_EEEdeEv>
   1a852:	48 89 c2             	mov    %rax,%rdx
   1a855:	48 8d 85 e0 fe ff ff 	lea    -0x120(%rbp),%rax
   1a85c:	48 89 d6             	mov    %rdx,%rsi
   1a85f:	48 89 c7             	mov    %rax,%rdi
   1a862:	e8 fd 20 01 00       	call   2c964 <_ZN5OfferC1ERKS_>
   1a867:	8b 85 a4 fa ff ff    	mov    -0x55c(%rbp),%eax
   1a86d:	89 c6                	mov    %eax,%esi
   1a86f:	48 8d 05 8a 6a 02 00 	lea    0x26a8a(%rip),%rax        # 41300 <_ZSt4cout@@GLIBCXX_3.4>
   1a876:	48 89 c7             	mov    %rax,%rdi
   1a879:	e8 62 cc ff ff       	call   174e0 <_ZNSolsEi@plt>
   1a87e:	48 89 c2             	mov    %rax,%rdx
   1a881:	48 8d 05 ea 9a 01 00 	lea    0x19aea(%rip),%rax        # 34372 <_IO_stdin_used+0x372>
   1a888:	48 89 c6             	mov    %rax,%rsi
   1a88b:	48 89 d7             	mov    %rdx,%rdi
   1a88e:	e8 0d ca ff ff       	call   172a0 <_ZStlsISt11char_traitsIcEERSt13basic_ostreamIcT_ES5_PKc@plt>
   1a893:	48 89 c3             	mov    %rax,%rbx
   1a896:	48 8d 85 a0 fe ff ff 	lea    -0x160(%rbp),%rax
   1a89d:	48 8d 95 e0 fe ff ff 	lea    -0x120(%rbp),%rdx
   1a8a4:	48 89 d6             	mov    %rdx,%rsi
   1a8a7:	48 89 c7             	mov    %rax,%rdi
   1a8aa:	e8 8b 2a 01 00       	call   2d33a <_ZNK5Offer10getJobRoleB5cxx11Ev>
   1a8af:	48 8d 85 a0 fe ff ff 	lea    -0x160(%rbp),%rax
   1a8b6:	48 89 c6             	mov    %rax,%rsi
   1a8b9:	48 89 df             	mov    %rbx,%rdi
   1a8bc:	e8 bf c9 ff ff       	call   17280 <_ZStlsIcSt11char_traitsIcESaIcEERSt13basic_ostreamIT_T0_ES7_RKNSt7__cxx1112basic_stringIS4_S5_T1_EE@plt>
   1a8c1:	48 89 c2             	mov    %rax,%rdx
   1a8c4:	48 8d 05 a7 9a 01 00 	lea    0x19aa7(%rip),%rax        # 34372 <_IO_stdin_used+0x372>
   1a8cb:	48 89 c6             	mov    %rax,%rsi
   1a8ce:	48 89 d7             	mov    %rdx,%rdi
   1a8d1:	e8 ca c9 ff ff       	call   172a0 <_ZStlsISt11char_traitsIcEERSt13basic_ostreamIcT_ES5_PKc@plt>
   1a8d6:	48 89 c3             	mov    %rax,%rbx
   1a8d9:	48 8d 85 c0 fe ff ff 	lea    -0x140(%rbp),%rax
   1a8e0:	48 8d 95 e0 fe ff ff 	lea    -0x120(%rbp),%rdx
   1a8e7:	48 89 d6             	mov    %rdx,%rsi
   1a8ea:	48 89 c7             	mov    %rax,%rdi
   1a8ed:	e8 86 2a 01 00       	call   2d378 <_ZNK5Offer14getJobLocationB5cxx11Ev>
   1a8f2:	48 8d 85 c0 fe ff ff 	lea    -0x140(%rbp),%rax
   1a8f9:	48 89 c6             	mov    %rax,%rsi
   1a8fc:	48 89 df             	mov    %rbx,%rdi
   1a8ff:	e8 7c c9 ff ff       	call   17280 <_ZStlsIcSt11char_traitsIcESaIcEERSt13basic_ostreamIT_T0_ES7_RKNSt7__cxx1112basic_stringIS4_S5_T1_EE@plt>
   1a904:	48 8b 15 ad 66 02 00 	mov    0x266ad(%rip),%rdx        # 40fb8 <_ZSt4endlIcSt11char_traitsIcEERSt13basic_ostreamIT_T0_ES6_@GLIBCXX_3.4>
   1a90b:	48 89 d6             	mov    %rdx,%rsi
   1a90e:	48 89 c7             	mov    %rax,%rdi
   1a911:	e8 ca c9 ff ff       	call   172e0 <_ZNSolsEPFRSoS_E@plt>
   1a916:	48 8d 85 c0 fe ff ff 	lea    -0x140(%rbp),%rax
   1a91d:	48 89 c7             	mov    %rax,%rdi
   1a920:	e8 5b cc ff ff       	call   17580 <_ZNSt7__cxx1112basic_stringIcSt11char_traitsIcESaIcEED1Ev@plt>
   1a925:	48 8d 85 a0 fe ff ff 	lea    -0x160(%rbp),%rax
   1a92c:	48 89 c7             	mov    %rax,%rdi
   1a92f:	e8 4c cc ff ff       	call   17580 <_ZNSt7__cxx1112basic_stringIcSt11char_traitsIcESaIcEED1Ev@plt>
   1a934:	83 85 a4 fa ff ff 01 	addl   $0x1,-0x55c(%rbp)
   1a93b:	48 8d 85 e0 fe ff ff 	lea    -0x120(%rbp),%rax
   1a942:	48 89 c7             	mov    %rax,%rdi
   1a945:	e8 18 51 00 00       	call   1fa62 <_ZN5OfferD1Ev>
   1a94a:	48 8d 85 d0 fb ff ff 	lea    -0x430(%rbp),%rax
   1a951:	48 89 c7             	mov    %rax,%rdi
   1a954:	e8 0d 5d 00 00       	call   20666 <_ZN9__gnu_cxx17__normal_iteratorIP5OfferSt6vectorIS1_SaIS1_EEEppEv>
   1a959:	48 8d 95 f0 fb ff ff 	lea    -0x410(%rbp),%rdx
   1a960:	48 8d 85 d0 fb ff ff 	lea    -0x430(%rbp),%rax
   1a967:	48 89 d6             	mov    %rdx,%rsi
   1a96a:	48 89 c7             	mov    %rax,%rdi
   1a96d:	e8 b8 5c 00 00       	call   2062a <_ZN9__gnu_cxxneIP5OfferSt6vectorIS1_SaIS1_EEEEbRKNS_17__normal_iteratorIT_T0_EESB_>
   1a972:	84 c0                	test   %al,%al
   1a974:	0f 85 c9 fe ff ff    	jne    1a843 <main+0x122f>
   1a97a:	48 8d 05 a3 9b 01 00 	lea    0x19ba3(%rip),%rax        # 34524 <_IO_stdin_used+0x524>
   1a981:	48 89 c6             	mov    %rax,%rsi
   1a984:	48 8d 05 75 69 02 00 	lea    0x26975(%rip),%rax        # 41300 <_ZSt4cout@@GLIBCXX_3.4>
   1a98b:	48 89 c7             	mov    %rax,%rdi
   1a98e:	e8 0d c9 ff ff       	call   172a0 <_ZStlsISt11char_traitsIcEERSt13basic_ostreamIcT_ES5_PKc@plt>
   1a993:	48 8d 85 6c fa ff ff 	lea    -0x594(%rbp),%rax
   1a99a:	48 89 c6             	mov    %rax,%rsi
   1a99d:	48 8d 05 9c 6a 02 00 	lea    0x26a9c(%rip),%rax        # 41440 <_ZSt3cin@@GLIBCXX_3.4>
   1a9a4:	48 89 c7             	mov    %rax,%rdi
   1a9a7:	e8 14 c8 ff ff       	call   171c0 <_ZNSirsERi@plt>
   1a9ac:	48 8d 05 86 9b 01 00 	lea    0x19b86(%rip),%rax        # 34539 <_IO_stdin_used+0x539>
   1a9b3:	48 89 c6             	mov    %rax,%rsi
   1a9b6:	48 8d 05 43 69 02 00 	lea    0x26943(%rip),%rax        # 41300 <_ZSt4cout@@GLIBCXX_3.4>
   1a9bd:	48 89 c7             	mov    %rax,%rdi
   1a9c0:	e8 db c8 ff ff       	call   172a0 <_ZStlsISt11char_traitsIcEERSt13basic_ostreamIcT_ES5_PKc@plt>
   1a9c5:	48 8d 05 88 9b 01 00 	lea    0x19b88(%rip),%rax        # 34554 <_IO_stdin_used+0x554>
   1a9cc:	48 89 c6             	mov    %rax,%rsi
   1a9cf:	48 8d 05 2a 69 02 00 	lea    0x2692a(%rip),%rax        # 41300 <_ZSt4cout@@GLIBCXX_3.4>
   1a9d6:	48 89 c7             	mov    %rax,%rdi
   1a9d9:	e8 c2 c8 ff ff       	call   172a0 <_ZStlsISt11char_traitsIcEERSt13basic_ostreamIcT_ES5_PKc@plt>
   1a9de:	48 8d 85 e0 fc ff ff 	lea    -0x320(%rbp),%rax
   1a9e5:	48 89 c6             	mov    %rax,%rsi
   1a9e8:	48 8d 05 51 6a 02 00 	lea    0x26a51(%rip),%rax        # 41440 <_ZSt3cin@@GLIBCXX_3.4>
   1a9ef:	48 89 c7             	mov    %rax,%rdi
   1a9f2:	e8 c9 c9 ff ff       	call   173c0 <_ZStrsIcSt11char_traitsIcESaIcEERSt13basic_istreamIT_T0_ES7_RNSt7__cxx1112basic_stringIS4_S5_T1_EE@plt>
   1a9f7:	48 8d 05 6c 9b 01 00 	lea    0x19b6c(%rip),%rax        # 3456a <_IO_stdin_used+0x56a>
   1a9fe:	48 89 c6             	mov    %rax,%rsi
   1aa01:	48 8d 05 f8 68 02 00 	lea    0x268f8(%rip),%rax        # 41300 <_ZSt4cout@@GLIBCXX_3.4>
   1aa08:	48 89 c7             	mov    %rax,%rdi
   1aa0b:	e8 90 c8 ff ff       	call   172a0 <_ZStlsISt11char_traitsIcEERSt13basic_ostreamIcT_ES5_PKc@plt>
   1aa10:	48 8d 85 70 fa ff ff 	lea    -0x590(%rbp),%rax
   1aa17:	48 89 c6             	mov    %rax,%rsi
   1aa1a:	48 8d 05 1f 6a 02 00 	lea    0x26a1f(%rip),%rax        # 41440 <_ZSt3cin@@GLIBCXX_3.4>
   1aa21:	48 89 c7             	mov    %rax,%rdi
   1aa24:	e8 97 c7 ff ff       	call   171c0 <_ZNSirsERi@plt>
   1aa29:	48 8d 05 50 9b 01 00 	lea    0x19b50(%rip),%rax        # 34580 <_IO_stdin_used+0x580>
   1aa30:	48 89 c6             	mov    %rax,%rsi
   1aa33:	48 8d 05 c6 68 02 00 	lea    0x268c6(%rip),%rax        # 41300 <_ZSt4cout@@GLIBCXX_3.4>
   1aa3a:	48 89 c7             	mov    %rax,%rdi
   1aa3d:	e8 5e c8 ff ff       	call   172a0 <_ZStlsISt11char_traitsIcEERSt13basic_ostreamIcT_ES5_PKc@plt>
   1aa42:	48 8d 85 20 fd ff ff 	lea    -0x2e0(%rbp),%rax
   1aa49:	48 89 c6             	mov    %rax,%rsi
   1aa4c:	48 8d 05 ed 69 02 00 	lea    0x269ed(%rip),%rax        # 41440 <_ZSt3cin@@GLIBCXX_3.4>
   1aa53:	48 89 c7             	mov    %rax,%rdi
   1aa56:	e8 65 c9 ff ff       	call   173c0 <_ZStrsIcSt11char_traitsIcESaIcEERSt13basic_istreamIT_T0_ES7_RNSt7__cxx1112basic_stringIS4_S5_T1_EE@plt>
   1aa5b:	48 8d 05 3c 9b 01 00 	lea    0x19b3c(%rip),%rax        # 3459e <_IO_stdin_used+0x59e>
   1aa62:	48 89 c6             	mov    %rax,%rsi
   1aa65:	48 8d 05 94 68 02 00 	lea    0x26894(%rip),%rax        # 41300 <_ZSt4cout@@GLIBCXX_3.4>
   1aa6c:	48 89 c7             	mov    %rax,%rdi
   1aa6f:	e8 2c c8 ff ff       	call   172a0 <_ZStlsISt11char_traitsIcEERSt13basic_ostreamIcT_ES5_PKc@plt>
   1aa74:	48 8d 85 00 fd ff ff 	lea    -0x300(%rbp),%rax
   1aa7b:	48 89 c6             	mov    %rax,%rsi
   1aa7e:	48 8d 05 bb 69 02 00 	lea    0x269bb(%rip),%rax        # 41440 <_ZSt3cin@@GLIBCXX_3.4>
   1aa85:	48 89 c7             	mov    %rax,%rdi
   1aa88:	e8 33 c9 ff ff       	call   173c0 <_ZStrsIcSt11char_traitsIcESaIcEERSt13basic_istreamIT_T0_ES7_RNSt7__cxx1112basic_stringIS4_S5_T1_EE@plt>
   1aa8d:	48 8b 85 b0 fa ff ff 	mov    -0x550(%rbp),%rax
   1aa94:	48 89 c7             	mov    %rax,%rdi
   1aa97:	e8 16 cb 00 00       	call   275b2 <_ZN7Company9getOffersEv>
   1aa9c:	48 89 c2             	mov    %rax,%rdx
   1aa9f:	8b 85 6c fa ff ff    	mov    -0x594(%rbp),%eax
   1aaa5:	48 98                	cltq   
   1aaa7:	48 89 c6             	mov    %rax,%rsi
   1aaaa:	48 89 d7             	mov    %rdx,%rdi
   1aaad:	e8 86 56 00 00       	call   20138 <_ZNSt6vectorI5OfferSaIS0_EE2atEm>
   1aab2:	49 89 c5             	mov    %rax,%r13
   1aab5:	8b 85 6c fa ff ff    	mov    -0x594(%rbp),%eax
   1aabb:	44 8d 60 01          	lea    0x1(%rax),%r12d
   1aabf:	48 c7 85 f0 fb ff ff 	movq   $0x0,-0x410(%rbp)
   1aac6:	00 00 00 00 
   1aaca:	48 c7 85 f8 fb ff ff 	movq   $0x0,-0x408(%rbp)
   1aad1:	00 00 00 00 
   1aad5:	48 c7 85 00 fc ff ff 	movq   $0x0,-0x400(%rbp)
   1aadc:	00 00 00 00 
   1aae0:	48 8d 85 f0 fb ff ff 	lea    -0x410(%rbp),%rax
   1aae7:	48 89 c7             	mov    %rax,%rdi
   1aaea:	e8 fd 4f 00 00       	call   1faec <_ZNSt6vectorI7StudentSaIS0_EEC1Ev>
   1aaef:	48 8d 95 20 fd ff ff 	lea    -0x2e0(%rbp),%rdx
   1aaf6:	48 8d 85 c0 fe ff ff 	lea    -0x140(%rbp),%rax
   1aafd:	48 89 d6             	mov    %rdx,%rsi
   1ab00:	48 89 c7             	mov    %rax,%rdi
   1ab03:	e8 28 c6 ff ff       	call   17130 <_ZNSt7__cxx1112basic_stringIcSt11char_traitsIcESaIcEEC1ERKS4_@plt>
   1ab08:	48 8d 95 00 fd ff ff 	lea    -0x300(%rbp),%rdx
   1ab0f:	48 8d 85 a0 fe ff ff 	lea    -0x160(%rbp),%rax
   1ab16:	48 89 d6             	mov    %rdx,%rsi
   1ab19:	48 89 c7             	mov    %rax,%rdi
   1ab1c:	e8 0f c6 ff ff       	call   17130 <_ZNSt7__cxx1112basic_stringIcSt11char_traitsIcESaIcEEC1ERKS4_@plt>
   1ab21:	8b 9d 70 fa ff ff    	mov    -0x590(%rbp),%ebx
   1ab27:	48 8d 95 e0 fc ff ff 	lea    -0x320(%rbp),%rdx
   1ab2e:	48 8d 85 80 fe ff ff 	lea    -0x180(%rbp),%rax
   1ab35:	48 89 d6             	mov    %rdx,%rsi
   1ab38:	48 89 c7             	mov    %rax,%rdi
   1ab3b:	e8 f0 c5 ff ff       	call   17130 <_ZNSt7__cxx1112basic_stringIcSt11char_traitsIcESaIcEEC1ERKS4_@plt>
   1ab40:	48 8d bd f0 fb ff ff 	lea    -0x410(%rbp),%rdi
   1ab47:	48 8d 8d c0 fe ff ff 	lea    -0x140(%rbp),%rcx
   1ab4e:	48 8d 95 a0 fe ff ff 	lea    -0x160(%rbp),%rdx
   1ab55:	48 8d b5 80 fe ff ff 	lea    -0x180(%rbp),%rsi
   1ab5c:	48 8d 85 e0 fe ff ff 	lea    -0x120(%rbp),%rax
   1ab63:	49 89 f9             	mov    %rdi,%r9
   1ab66:	49 89 c8             	mov    %rcx,%r8
   1ab69:	48 89 d1             	mov    %rdx,%rcx
   1ab6c:	89 da                	mov    %ebx,%edx
   1ab6e:	48 89 c7             	mov    %rax,%rdi
   1ab71:	e8 52 76 00 00       	call   221c8 <_ZN7CollegeC1ENSt7__cxx1112basic_stringIcSt11char_traitsIcESaIcEEEiS5_S5_St6vectorI7StudentSaIS7_EE>
   1ab76:	48 8d 85 e0 fe ff ff 	lea    -0x120(%rbp),%rax
   1ab7d:	44 89 e2             	mov    %r12d,%edx
   1ab80:	48 89 c6             	mov    %rax,%rsi
   1ab83:	4c 89 ef             	mov    %r13,%rdi
   1ab86:	e8 2d 20 01 00       	call   2cbb8 <_ZN5Offer10addCollegeE7Collegei>
   1ab8b:	48 8d 85 e0 fe ff ff 	lea    -0x120(%rbp),%rax
   1ab92:	48 89 c7             	mov    %rax,%rdi
   1ab95:	e8 6e 4f 00 00       	call   1fb08 <_ZN7CollegeD1Ev>
   1ab9a:	48 8d 85 80 fe ff ff 	lea    -0x180(%rbp),%rax
   1aba1:	48 89 c7             	mov    %rax,%rdi
   1aba4:	e8 d7 c9 ff ff       	call   17580 <_ZNSt7__cxx1112basic_stringIcSt11char_traitsIcESaIcEED1Ev@plt>
   1aba9:	48 8d 85 a0 fe ff ff 	lea    -0x160(%rbp),%rax
   1abb0:	48 89 c7             	mov    %rax,%rdi
   1abb3:	e8 c8 c9 ff ff       	call   17580 <_ZNSt7__cxx1112basic_stringIcSt11char_traitsIcESaIcEED1Ev@plt>
   1abb8:	48 8d 85 c0 fe ff ff 	lea    -0x140(%rbp),%rax
   1abbf:	48 89 c7             	mov    %rax,%rdi
   1abc2:	e8 b9 c9 ff ff       	call   17580 <_ZNSt7__cxx1112basic_stringIcSt11char_traitsIcESaIcEED1Ev@plt>
   1abc7:	48 8d 85 f0 fb ff ff 	lea    -0x410(%rbp),%rax
   1abce:	48 89 c7             	mov    %rax,%rdi
   1abd1:	e8 00 59 00 00       	call   204d6 <_ZNSt6vectorI7StudentSaIS0_EED1Ev>
   1abd6:	e9 89 1c 00 00       	jmp    1c864 <main+0x3250>
   1abdb:	48 8d 05 75 97 01 00 	lea    0x19775(%rip),%rax        # 34357 <_IO_stdin_used+0x357>
   1abe2:	48 89 c6             	mov    %rax,%rsi
   1abe5:	48 8d 05 14 67 02 00 	lea    0x26714(%rip),%rax        # 41300 <_ZSt4cout@@GLIBCXX_3.4>
   1abec:	48 89 c7             	mov    %rax,%rdi
   1abef:	e8 ac c6 ff ff       	call   172a0 <_ZStlsISt11char_traitsIcEERSt13basic_ostreamIcT_ES5_PKc@plt>
   1abf4:	48 8b 15 bd 63 02 00 	mov    0x263bd(%rip),%rdx        # 40fb8 <_ZSt4endlIcSt11char_traitsIcEERSt13basic_ostreamIT_T0_ES6_@GLIBCXX_3.4>
   1abfb:	48 89 d6             	mov    %rdx,%rsi
   1abfe:	48 89 c7             	mov    %rax,%rdi
   1ac01:	e8 da c6 ff ff       	call   172e0 <_ZNSolsEPFRSoS_E@plt>
   1ac06:	c7 85 a4 fa ff ff 00 	movl   $0x0,-0x55c(%rbp)
   1ac0d:	00 00 00 
   1ac10:	48 8b 85 b0 fa ff ff 	mov    -0x550(%rbp),%rax
   1ac17:	48 89 c7             	mov    %rax,%rdi
   1ac1a:	e8 93 c9 00 00       	call   275b2 <_ZN7Company9getOffersEv>
   1ac1f:	48 89 85 88 fb ff ff 	mov    %rax,-0x478(%rbp)
   1ac26:	48 8b 85 88 fb ff ff 	mov    -0x478(%rbp),%rax
   1ac2d:	48 89 c7             	mov    %rax,%rdi
   1ac30:	e8 61 59 00 00       	call   20596 <_ZNSt6vectorI5OfferSaIS0_EE5beginEv>
   1ac35:	48 89 85 d0 fb ff ff 	mov    %rax,-0x430(%rbp)
   1ac3c:	48 8b 85 88 fb ff ff 	mov    -0x478(%rbp),%rax
   1ac43:	48 89 c7             	mov    %rax,%rdi
   1ac46:	e8 93 59 00 00       	call   205de <_ZNSt6vectorI5OfferSaIS0_EE3endEv>
   1ac4b:	48 89 85 f0 fb ff ff 	mov    %rax,-0x410(%rbp)
   1ac52:	e9 16 01 00 00       	jmp    1ad6d <main+0x1759>
   1ac57:	48 8d 85 d0 fb ff ff 	lea    -0x430(%rbp),%rax
   1ac5e:	48 89 c7             	mov    %rax,%rdi
   1ac61:	e8 24 5a 00 00       	call   2068a <_ZNK9__gnu_cxx17__normal_iteratorIP5OfferSt6vectorIS1_SaIS1_EEEdeEv>
   1ac66:	48 89 c2             	mov    %rax,%rdx
   1ac69:	48 8d 85 e0 fe ff ff 	lea    -0x120(%rbp),%rax
   1ac70:	48 89 d6             	mov    %rdx,%rsi
   1ac73:	48 89 c7             	mov    %rax,%rdi
   1ac76:	e8 e9 1c 01 00       	call   2c964 <_ZN5OfferC1ERKS_>
   1ac7b:	8b 85 a4 fa ff ff    	mov    -0x55c(%rbp),%eax
   1ac81:	89 c6                	mov    %eax,%esi
   1ac83:	48 8d 05 76 66 02 00 	lea    0x26676(%rip),%rax        # 41300 <_ZSt4cout@@GLIBCXX_3.4>
   1ac8a:	48 89 c7             	mov    %rax,%rdi
   1ac8d:	e8 4e c8 ff ff       	call   174e0 <_ZNSolsEi@plt>
   1ac92:	48 89 c2             	mov    %rax,%rdx
   1ac95:	48 8d 05 d6 96 01 00 	lea    0x196d6(%rip),%rax        # 34372 <_IO_stdin_used+0x372>
   1ac9c:	48 89 c6             	mov    %rax,%rsi
   1ac9f:	48 89 d7             	mov    %rdx,%rdi
   1aca2:	e8 f9 c5 ff ff       	call   172a0 <_ZStlsISt11char_traitsIcEERSt13basic_ostreamIcT_ES5_PKc@plt>
   1aca7:	48 89 c3             	mov    %rax,%rbx
   1acaa:	48 8d 85 a0 fe ff ff 	lea    -0x160(%rbp),%rax
   1acb1:	48 8d 95 e0 fe ff ff 	lea    -0x120(%rbp),%rdx
   1acb8:	48 89 d6             	mov    %rdx,%rsi
   1acbb:	48 89 c7             	mov    %rax,%rdi
   1acbe:	e8 77 26 01 00       	call   2d33a <_ZNK5Offer10getJobRoleB5cxx11Ev>
   1acc3:	48 8d 85 a0 fe ff ff 	lea    -0x160(%rbp),%rax
   1acca:	48 89 c6             	mov    %rax,%rsi
   1accd:	48 89 df             	mov    %rbx,%rdi
   1acd0:	e8 ab c5 ff ff       	call   17280 <_ZStlsIcSt11char_traitsIcESaIcEERSt13basic_ostreamIT_T0_ES7_RKNSt7__cxx1112basic_stringIS4_S5_T1_EE@plt>
   1acd5:	48 89 c2             	mov    %rax,%rdx
   1acd8:	48 8d 05 93 96 01 00 	lea    0x19693(%rip),%rax        # 34372 <_IO_stdin_used+0x372>
   1acdf:	48 89 c6             	mov    %rax,%rsi
   1ace2:	48 89 d7             	mov    %rdx,%rdi
   1ace5:	e8 b6 c5 ff ff       	call   172a0 <_ZStlsISt11char_traitsIcEERSt13basic_ostreamIcT_ES5_PKc@plt>
   1acea:	48 89 c3             	mov    %rax,%rbx
   1aced:	48 8d 85 c0 fe ff ff 	lea    -0x140(%rbp),%rax
   1acf4:	48 8d 95 e0 fe ff ff 	lea    -0x120(%rbp),%rdx
   1acfb:	48 89 d6             	mov    %rdx,%rsi
   1acfe:	48 89 c7             	mov    %rax,%rdi
   1ad01:	e8 72 26 01 00       	call   2d378 <_ZNK5Offer14getJobLocationB5cxx11Ev>
   1ad06:	48 8d 85 c0 fe ff ff 	lea    -0x140(%rbp),%rax
   1ad0d:	48 89 c6             	mov    %rax,%rsi
   1ad10:	48 89 df             	mov    %rbx,%rdi
   1ad13:	e8 68 c5 ff ff       	call   17280 <_ZStlsIcSt11char_traitsIcESaIcEERSt13basic_ostreamIT_T0_ES7_RKNSt7__cxx1112basic_stringIS4_S5_T1_EE@plt>
   1ad18:	48 8b 15 99 62 02 00 	mov    0x26299(%rip),%rdx        # 40fb8 <_ZSt4endlIcSt11char_traitsIcEERSt13basic_ostreamIT_T0_ES6_@GLIBCXX_3.4>
   1ad1f:	48 89 d6             	mov    %rdx,%rsi
   1ad22:	48 89 c7             	mov    %rax,%rdi
   1ad25:	e8 b6 c5 ff ff       	call   172e0 <_ZNSolsEPFRSoS_E@plt>
   1ad2a:	48 8d 85 c0 fe ff ff 	lea    -0x140(%rbp),%rax
   1ad31:	48 89 c7             	mov    %rax,%rdi
   1ad34:	e8 47 c8 ff ff       	call   17580 <_ZNSt7__cxx1112basic_stringIcSt11char_traitsIcESaIcEED1Ev@plt>
   1ad39:	48 8d 85 a0 fe ff ff 	lea    -0x160(%rbp),%rax
   1ad40:	48 89 c7             	mov    %rax,%rdi
   1ad43:	e8 38 c8 ff ff       	call   17580 <_ZNSt7__cxx1112basic_stringIcSt11char_traitsIcESaIcEED1Ev@plt>
   1ad48:	83 85 a4 fa ff ff 01 	addl   $0x1,-0x55c(%rbp)
   1ad4f:	48 8d 85 e0 fe ff ff 	lea    -0x120(%rbp),%rax
   1ad56:	48 89 c7             	mov    %rax,%rdi
   1ad59:	e8 04 4d 00 00       	call   1fa62 <_ZN5OfferD1Ev>
   1ad5e:	48 8d 85 d0 fb ff ff 	lea    -0x430(%rbp),%rax
   1ad65:	48 89 c7             	mov    %rax,%rdi
   1ad68:	e8 f9 58 00 00       	call   20666 <_ZN9__gnu_cxx17__normal_iteratorIP5OfferSt6vectorIS1_SaIS1_EEEppEv>
   1ad6d:	48 8d 95 f0 fb ff ff 	lea    -0x410(%rbp),%rdx
   1ad74:	48 8d 85 d0 fb ff ff 	lea    -0x430(%rbp),%rax
   1ad7b:	48 89 d6             	mov    %rdx,%rsi
   1ad7e:	48 89 c7             	mov    %rax,%rdi
   1ad81:	e8 a4 58 00 00       	call   2062a <_ZN9__gnu_cxxneIP5OfferSt6vectorIS1_SaIS1_EEEEbRKNS_17__normal_iteratorIT_T0_EESB_>
   1ad86:	84 c0                	test   %al,%al
   1ad88:	0f 85 c9 fe ff ff    	jne    1ac57 <main+0x1643>
   1ad8e:	48 8d 05 23 98 01 00 	lea    0x19823(%rip),%rax        # 345b8 <_IO_stdin_used+0x5b8>
   1ad95:	48 89 c6             	mov    %rax,%rsi
   1ad98:	48 8d 05 61 65 02 00 	lea    0x26561(%rip),%rax        # 41300 <_ZSt4cout@@GLIBCXX_3.4>
   1ad9f:	48 89 c7             	mov    %rax,%rdi
   1ada2:	e8 f9 c4 ff ff       	call   172a0 <_ZStlsISt11char_traitsIcEERSt13basic_ostreamIcT_ES5_PKc@plt>
   1ada7:	48 8d 85 6c fa ff ff 	lea    -0x594(%rbp),%rax
   1adae:	48 89 c6             	mov    %rax,%rsi
   1adb1:	48 8d 05 88 66 02 00 	lea    0x26688(%rip),%rax        # 41440 <_ZSt3cin@@GLIBCXX_3.4>
   1adb8:	48 89 c7             	mov    %rax,%rdi
   1adbb:	e8 00 c4 ff ff       	call   171c0 <_ZNSirsERi@plt>
   1adc0:	48 8d 05 21 98 01 00 	lea    0x19821(%rip),%rax        # 345e8 <_IO_stdin_used+0x5e8>
   1adc7:	48 89 c6             	mov    %rax,%rsi
   1adca:	48 8d 05 2f 65 02 00 	lea    0x2652f(%rip),%rax        # 41300 <_ZSt4cout@@GLIBCXX_3.4>
   1add1:	48 89 c7             	mov    %rax,%rdi
   1add4:	e8 c7 c4 ff ff       	call   172a0 <_ZStlsISt11char_traitsIcEERSt13basic_ostreamIcT_ES5_PKc@plt>
   1add9:	48 8b 15 d8 61 02 00 	mov    0x261d8(%rip),%rdx        # 40fb8 <_ZSt4endlIcSt11char_traitsIcEERSt13basic_ostreamIT_T0_ES6_@GLIBCXX_3.4>
   1ade0:	48 89 d6             	mov    %rdx,%rsi
   1ade3:	48 89 c7             	mov    %rax,%rdi
   1ade6:	e8 f5 c4 ff ff       	call   172e0 <_ZNSolsEPFRSoS_E@plt>
   1adeb:	c7 85 a4 fa ff ff 00 	movl   $0x0,-0x55c(%rbp)
   1adf2:	00 00 00 
   1adf5:	48 8b 85 b0 fa ff ff 	mov    -0x550(%rbp),%rax
   1adfc:	48 89 c7             	mov    %rax,%rdi
   1adff:	e8 ae c7 00 00       	call   275b2 <_ZN7Company9getOffersEv>
   1ae04:	48 89 c2             	mov    %rax,%rdx
   1ae07:	8b 85 6c fa ff ff    	mov    -0x594(%rbp),%eax
   1ae0d:	48 98                	cltq   
   1ae0f:	48 89 c6             	mov    %rax,%rsi
   1ae12:	48 89 d7             	mov    %rdx,%rdi
   1ae15:	e8 1e 53 00 00       	call   20138 <_ZNSt6vectorI5OfferSaIS0_EE2atEm>
   1ae1a:	48 89 c7             	mov    %rax,%rdi
   1ae1d:	e8 04 25 01 00       	call   2d326 <_ZN5Offer10getCollegeEv>
   1ae22:	48 89 85 90 fb ff ff 	mov    %rax,-0x470(%rbp)
   1ae29:	48 8b 85 90 fb ff ff 	mov    -0x470(%rbp),%rax
   1ae30:	48 89 c7             	mov    %rax,%rdi
   1ae33:	e8 64 58 00 00       	call   2069c <_ZNSt6vectorI7CollegeSaIS0_EE5beginEv>
   1ae38:	48 89 85 d0 fb ff ff 	mov    %rax,-0x430(%rbp)
   1ae3f:	48 8b 85 90 fb ff ff 	mov    -0x470(%rbp),%rax
   1ae46:	48 89 c7             	mov    %rax,%rdi
   1ae49:	e8 96 58 00 00       	call   206e4 <_ZNSt6vectorI7CollegeSaIS0_EE3endEv>
   1ae4e:	48 89 85 f0 fb ff ff 	mov    %rax,-0x410(%rbp)
   1ae55:	e9 f5 00 00 00       	jmp    1af4f <main+0x193b>
   1ae5a:	48 8d 85 d0 fb ff ff 	lea    -0x430(%rbp),%rax
   1ae61:	48 89 c7             	mov    %rax,%rdi
   1ae64:	e8 27 59 00 00       	call   20790 <_ZNK9__gnu_cxx17__normal_iteratorIP7CollegeSt6vectorIS1_SaIS1_EEEdeEv>
   1ae69:	48 89 c2             	mov    %rax,%rdx
   1ae6c:	48 8d 85 e0 fe ff ff 	lea    -0x120(%rbp),%rax
   1ae73:	48 89 d6             	mov    %rdx,%rsi
   1ae76:	48 89 c7             	mov    %rax,%rdi
   1ae79:	e8 4a 4d 00 00       	call   1fbc8 <_ZN7CollegeC1ERKS_>
   1ae7e:	8b 85 a4 fa ff ff    	mov    -0x55c(%rbp),%eax
   1ae84:	89 c6                	mov    %eax,%esi
   1ae86:	48 8d 05 73 64 02 00 	lea    0x26473(%rip),%rax        # 41300 <_ZSt4cout@@GLIBCXX_3.4>
   1ae8d:	48 89 c7             	mov    %rax,%rdi
   1ae90:	e8 4b c6 ff ff       	call   174e0 <_ZNSolsEi@plt>
   1ae95:	48 89 c2             	mov    %rax,%rdx
   1ae98:	48 8d 05 d3 94 01 00 	lea    0x194d3(%rip),%rax        # 34372 <_IO_stdin_used+0x372>
   1ae9f:	48 89 c6             	mov    %rax,%rsi
   1aea2:	48 89 d7             	mov    %rdx,%rdi
   1aea5:	e8 f6 c3 ff ff       	call   172a0 <_ZStlsISt11char_traitsIcEERSt13basic_ostreamIcT_ES5_PKc@plt>
   1aeaa:	48 89 c3             	mov    %rax,%rbx
   1aead:	48 8d 85 c0 fe ff ff 	lea    -0x140(%rbp),%rax
   1aeb4:	48 8d 95 e0 fe ff ff 	lea    -0x120(%rbp),%rdx
   1aebb:	48 89 d6             	mov    %rdx,%rsi
   1aebe:	48 89 c7             	mov    %rax,%rdi
   1aec1:	e8 f8 82 00 00       	call   231be <_ZNK7College7getNameB5cxx11Ev>
   1aec6:	48 8d 85 c0 fe ff ff 	lea    -0x140(%rbp),%rax
   1aecd:	48 89 c6             	mov    %rax,%rsi
   1aed0:	48 89 df             	mov    %rbx,%rdi
   1aed3:	e8 a8 c3 ff ff       	call   17280 <_ZStlsIcSt11char_traitsIcESaIcEERSt13basic_ostreamIT_T0_ES7_RKNSt7__cxx1112basic_stringIS4_S5_T1_EE@plt>
   1aed8:	48 89 c2             	mov    %rax,%rdx
   1aedb:	48 8d 05 90 94 01 00 	lea    0x19490(%rip),%rax        # 34372 <_IO_stdin_used+0x372>
   1aee2:	48 89 c6             	mov    %rax,%rsi
   1aee5:	48 89 d7             	mov    %rdx,%rdi
   1aee8:	e8 b3 c3 ff ff       	call   172a0 <_ZStlsISt11char_traitsIcEERSt13basic_ostreamIcT_ES5_PKc@plt>
   1aeed:	48 89 c3             	mov    %rax,%rbx
   1aef0:	48 8d 85 e0 fe ff ff 	lea    -0x120(%rbp),%rax
   1aef7:	48 89 c7             	mov    %rax,%rdi
   1aefa:	e8 ed 82 00 00       	call   231ec <_ZNK7College14getCollegeCodeEv>
   1aeff:	89 c6                	mov    %eax,%esi
   1af01:	48 89 df             	mov    %rbx,%rdi
   1af04:	e8 d7 c5 ff ff       	call   174e0 <_ZNSolsEi@plt>
   1af09:	48 8b 15 a8 60 02 00 	mov    0x260a8(%rip),%rdx        # 40fb8 <_ZSt4endlIcSt11char_traitsIcEERSt13basic_ostreamIT_T0_ES6_@GLIBCXX_3.4>
   1af10:	48 89 d6             	mov    %rdx,%rsi
   1af13:	48 89 c7             	mov    %rax,%rdi
   1af16:	e8 c5 c3 ff ff       	call   172e0 <_ZNSolsEPFRSoS_E@plt>
   1af1b:	48 8d 85 c0 fe ff ff 	lea    -0x140(%rbp),%rax
   1af22:	48 89 c7             	mov    %rax,%rdi
   1af25:	e8 56 c6 ff ff       	call   17580 <_ZNSt7__cxx1112basic_stringIcSt11char_traitsIcESaIcEED1Ev@plt>
   1af2a:	83 85 a4 fa ff ff 01 	addl   $0x1,-0x55c(%rbp)
   1af31:	48 8d 85 e0 fe ff ff 	lea    -0x120(%rbp),%rax
   1af38:	48 89 c7             	mov    %rax,%rdi
   1af3b:	e8 c8 4b 00 00       	call   1fb08 <_ZN7CollegeD1Ev>
   1af40:	48 8d 85 d0 fb ff ff 	lea    -0x430(%rbp),%rax
   1af47:	48 89 c7             	mov    %rax,%rdi
   1af4a:	e8 1d 58 00 00       	call   2076c <_ZN9__gnu_cxx17__normal_iteratorIP7CollegeSt6vectorIS1_SaIS1_EEEppEv>
   1af4f:	48 8d 95 f0 fb ff ff 	lea    -0x410(%rbp),%rdx
   1af56:	48 8d 85 d0 fb ff ff 	lea    -0x430(%rbp),%rax
   1af5d:	48 89 d6             	mov    %rdx,%rsi
   1af60:	48 89 c7             	mov    %rax,%rdi
   1af63:	e8 c8 57 00 00       	call   20730 <_ZN9__gnu_cxxneIP7CollegeSt6vectorIS1_SaIS1_EEEEbRKNS_17__normal_iteratorIT_T0_EESB_>
   1af68:	84 c0                	test   %al,%al
   1af6a:	0f 85 ea fe ff ff    	jne    1ae5a <main+0x1846>
   1af70:	48 8d 05 91 96 01 00 	lea    0x19691(%rip),%rax        # 34608 <_IO_stdin_used+0x608>
   1af77:	48 89 c6             	mov    %rax,%rsi
   1af7a:	48 8d 05 7f 63 02 00 	lea    0x2637f(%rip),%rax        # 41300 <_ZSt4cout@@GLIBCXX_3.4>
   1af81:	48 89 c7             	mov    %rax,%rdi
   1af84:	e8 17 c3 ff ff       	call   172a0 <_ZStlsISt11char_traitsIcEERSt13basic_ostreamIcT_ES5_PKc@plt>
   1af89:	48 8d 85 74 fa ff ff 	lea    -0x58c(%rbp),%rax
   1af90:	48 89 c6             	mov    %rax,%rsi
   1af93:	48 8d 05 a6 64 02 00 	lea    0x264a6(%rip),%rax        # 41440 <_ZSt3cin@@GLIBCXX_3.4>
   1af9a:	48 89 c7             	mov    %rax,%rdi
   1af9d:	e8 1e c2 ff ff       	call   171c0 <_ZNSirsERi@plt>
   1afa2:	48 8d 05 ff 93 01 00 	lea    0x193ff(%rip),%rax        # 343a8 <_IO_stdin_used+0x3a8>
   1afa9:	48 89 c6             	mov    %rax,%rsi
   1afac:	48 8d 05 4d 63 02 00 	lea    0x2634d(%rip),%rax        # 41300 <_ZSt4cout@@GLIBCXX_3.4>
   1afb3:	48 89 c7             	mov    %rax,%rdi
   1afb6:	e8 e5 c2 ff ff       	call   172a0 <_ZStlsISt11char_traitsIcEERSt13basic_ostreamIcT_ES5_PKc@plt>
   1afbb:	48 8d 85 20 fe ff ff 	lea    -0x1e0(%rbp),%rax
   1afc2:	48 89 c6             	mov    %rax,%rsi
   1afc5:	48 8d 05 74 64 02 00 	lea    0x26474(%rip),%rax        # 41440 <_ZSt3cin@@GLIBCXX_3.4>
   1afcc:	48 89 c7             	mov    %rax,%rdi
   1afcf:	e8 ec c3 ff ff       	call   173c0 <_ZStrsIcSt11char_traitsIcESaIcEERSt13basic_istreamIT_T0_ES7_RNSt7__cxx1112basic_stringIS4_S5_T1_EE@plt>
   1afd4:	48 8b 85 b0 fa ff ff 	mov    -0x550(%rbp),%rax
   1afdb:	48 89 c7             	mov    %rax,%rdi
   1afde:	e8 cf c5 00 00       	call   275b2 <_ZN7Company9getOffersEv>
   1afe3:	48 89 c2             	mov    %rax,%rdx
   1afe6:	8b 85 6c fa ff ff    	mov    -0x594(%rbp),%eax
   1afec:	48 98                	cltq   
   1afee:	48 89 c6             	mov    %rax,%rsi
   1aff1:	48 89 d7             	mov    %rdx,%rdi
   1aff4:	e8 3f 51 00 00       	call   20138 <_ZNSt6vectorI5OfferSaIS0_EE2atEm>
   1aff9:	48 89 c7             	mov    %rax,%rdi
   1affc:	e8 25 23 01 00       	call   2d326 <_ZN5Offer10getCollegeEv>
   1b001:	48 89 c2             	mov    %rax,%rdx
   1b004:	8b 85 74 fa ff ff    	mov    -0x58c(%rbp),%eax
   1b00a:	48 98                	cltq   
   1b00c:	48 89 c6             	mov    %rax,%rsi
   1b00f:	48 89 d7             	mov    %rdx,%rdi
   1b012:	e8 b7 51 00 00       	call   201ce <_ZNSt6vectorI7CollegeSaIS0_EE2atEm>
   1b017:	48 89 c2             	mov    %rax,%rdx
   1b01a:	8b 85 74 fa ff ff    	mov    -0x58c(%rbp),%eax
   1b020:	83 c0 01             	add    $0x1,%eax
   1b023:	89 c6                	mov    %eax,%esi
   1b025:	48 89 d7             	mov    %rdx,%rdi
   1b028:	e8 c1 80 00 00       	call   230ee <_ZN7College12setCollegeIdEi>
   1b02d:	48 8b 85 b0 fa ff ff 	mov    -0x550(%rbp),%rax
   1b034:	48 89 c7             	mov    %rax,%rdi
   1b037:	e8 76 c5 00 00       	call   275b2 <_ZN7Company9getOffersEv>
   1b03c:	48 89 c2             	mov    %rax,%rdx
   1b03f:	8b 85 6c fa ff ff    	mov    -0x594(%rbp),%eax
   1b045:	48 98                	cltq   
   1b047:	48 89 c6             	mov    %rax,%rsi
   1b04a:	48 89 d7             	mov    %rdx,%rdi
   1b04d:	e8 e6 50 00 00       	call   20138 <_ZNSt6vectorI5OfferSaIS0_EE2atEm>
   1b052:	48 89 c7             	mov    %rax,%rdi
   1b055:	e8 cc 22 01 00       	call   2d326 <_ZN5Offer10getCollegeEv>
   1b05a:	48 89 c2             	mov    %rax,%rdx
   1b05d:	8b 85 74 fa ff ff    	mov    -0x58c(%rbp),%eax
   1b063:	48 98                	cltq   
   1b065:	48 89 c6             	mov    %rax,%rsi
   1b068:	48 89 d7             	mov    %rdx,%rdi
   1b06b:	e8 5e 51 00 00       	call   201ce <_ZNSt6vectorI7CollegeSaIS0_EE2atEm>
   1b070:	48 89 c3             	mov    %rax,%rbx
   1b073:	48 8d 95 20 fe ff ff 	lea    -0x1e0(%rbp),%rdx
   1b07a:	48 8d 85 e0 fe ff ff 	lea    -0x120(%rbp),%rax
   1b081:	48 89 d6             	mov    %rdx,%rsi
   1b084:	48 89 c7             	mov    %rax,%rdi
   1b087:	e8 a4 c0 ff ff       	call   17130 <_ZNSt7__cxx1112basic_stringIcSt11char_traitsIcESaIcEEC1ERKS4_@plt>
   1b08c:	48 8d 85 e0 fe ff ff 	lea    -0x120(%rbp),%rax
   1b093:	48 89 c6             	mov    %rax,%rsi
   1b096:	48 89 df             	mov    %rbx,%rdi
   1b099:	e8 4e 9a 00 00       	call   24aec <_ZN7College13updateCollegeENSt7__cxx1112basic_stringIcSt11char_traitsIcESaIcEEE>
   1b09e:	48 8d 85 e0 fe ff ff 	lea    -0x120(%rbp),%rax
   1b0a5:	48 89 c7             	mov    %rax,%rdi
   1b0a8:	e8 d3 c4 ff ff       	call   17580 <_ZNSt7__cxx1112basic_stringIcSt11char_traitsIcESaIcEED1Ev@plt>
   1b0ad:	e9 b2 17 00 00       	jmp    1c864 <main+0x3250>
   1b0b2:	48 8d 05 9e 92 01 00 	lea    0x1929e(%rip),%rax        # 34357 <_IO_stdin_used+0x357>
   1b0b9:	48 89 c6             	mov    %rax,%rsi
   1b0bc:	48 8d 05 3d 62 02 00 	lea    0x2623d(%rip),%rax        # 41300 <_ZSt4cout@@GLIBCXX_3.4>
   1b0c3:	48 89 c7             	mov    %rax,%rdi
   1b0c6:	e8 d5 c1 ff ff       	call   172a0 <_ZStlsISt11char_traitsIcEERSt13basic_ostreamIcT_ES5_PKc@plt>
   1b0cb:	48 8b 15 e6 5e 02 00 	mov    0x25ee6(%rip),%rdx        # 40fb8 <_ZSt4endlIcSt11char_traitsIcEERSt13basic_ostreamIT_T0_ES6_@GLIBCXX_3.4>
   1b0d2:	48 89 d6             	mov    %rdx,%rsi
   1b0d5:	48 89 c7             	mov    %rax,%rdi
   1b0d8:	e8 03 c2 ff ff       	call   172e0 <_ZNSolsEPFRSoS_E@plt>
   1b0dd:	c7 85 a4 fa ff ff 00 	movl   $0x0,-0x55c(%rbp)
   1b0e4:	00 00 00 
   1b0e7:	48 8b 85 b0 fa ff ff 	mov    -0x550(%rbp),%rax
   1b0ee:	48 89 c7             	mov    %rax,%rdi
   1b0f1:	e8 bc c4 00 00       	call   275b2 <_ZN7Company9getOffersEv>
   1b0f6:	48 89 85 78 fb ff ff 	mov    %rax,-0x488(%rbp)
   1b0fd:	48 8b 85 78 fb ff ff 	mov    -0x488(%rbp),%rax
   1b104:	48 89 c7             	mov    %rax,%rdi
   1b107:	e8 8a 54 00 00       	call   20596 <_ZNSt6vectorI5OfferSaIS0_EE5beginEv>
   1b10c:	48 89 85 d0 fb ff ff 	mov    %rax,-0x430(%rbp)
   1b113:	48 8b 85 78 fb ff ff 	mov    -0x488(%rbp),%rax
   1b11a:	48 89 c7             	mov    %rax,%rdi
   1b11d:	e8 bc 54 00 00       	call   205de <_ZNSt6vectorI5OfferSaIS0_EE3endEv>
   1b122:	48 89 85 f0 fb ff ff 	mov    %rax,-0x410(%rbp)
   1b129:	e9 16 01 00 00       	jmp    1b244 <main+0x1c30>
   1b12e:	48 8d 85 d0 fb ff ff 	lea    -0x430(%rbp),%rax
   1b135:	48 89 c7             	mov    %rax,%rdi
   1b138:	e8 4d 55 00 00       	call   2068a <_ZNK9__gnu_cxx17__normal_iteratorIP5OfferSt6vectorIS1_SaIS1_EEEdeEv>
   1b13d:	48 89 c2             	mov    %rax,%rdx
   1b140:	48 8d 85 e0 fe ff ff 	lea    -0x120(%rbp),%rax
   1b147:	48 89 d6             	mov    %rdx,%rsi
   1b14a:	48 89 c7             	mov    %rax,%rdi
   1b14d:	e8 12 18 01 00       	call   2c964 <_ZN5OfferC1ERKS_>
   1b152:	8b 85 a4 fa ff ff    	mov    -0x55c(%rbp),%eax
   1b158:	89 c6                	mov    %eax,%esi
   1b15a:	48 8d 05 9f 61 02 00 	lea    0x2619f(%rip),%rax        # 41300 <_ZSt4cout@@GLIBCXX_3.4>
   1b161:	48 89 c7             	mov    %rax,%rdi
   1b164:	e8 77 c3 ff ff       	call   174e0 <_ZNSolsEi@plt>
   1b169:	48 89 c2             	mov    %rax,%rdx
   1b16c:	48 8d 05 ff 91 01 00 	lea    0x191ff(%rip),%rax        # 34372 <_IO_stdin_used+0x372>
   1b173:	48 89 c6             	mov    %rax,%rsi
   1b176:	48 89 d7             	mov    %rdx,%rdi
   1b179:	e8 22 c1 ff ff       	call   172a0 <_ZStlsISt11char_traitsIcEERSt13basic_ostreamIcT_ES5_PKc@plt>
   1b17e:	48 89 c3             	mov    %rax,%rbx
   1b181:	48 8d 85 a0 fe ff ff 	lea    -0x160(%rbp),%rax
   1b188:	48 8d 95 e0 fe ff ff 	lea    -0x120(%rbp),%rdx
   1b18f:	48 89 d6             	mov    %rdx,%rsi
   1b192:	48 89 c7             	mov    %rax,%rdi
   1b195:	e8 a0 21 01 00       	call   2d33a <_ZNK5Offer10getJobRoleB5cxx11Ev>
   1b19a:	48 8d 85 a0 fe ff ff 	lea    -0x160(%rbp),%rax
   1b1a1:	48 89 c6             	mov    %rax,%rsi
   1b1a4:	48 89 df             	mov    %rbx,%rdi
   1b1a7:	e8 d4 c0 ff ff       	call   17280 <_ZStlsIcSt11char_traitsIcESaIcEERSt13basic_ostreamIT_T0_ES7_RKNSt7__cxx1112basic_stringIS4_S5_T1_EE@plt>
   1b1ac:	48 89 c2             	mov    %rax,%rdx
   1b1af:	48 8d 05 bc 91 01 00 	lea    0x191bc(%rip),%rax        # 34372 <_IO_stdin_used+0x372>
   1b1b6:	48 89 c6             	mov    %rax,%rsi
   1b1b9:	48 89 d7             	mov    %rdx,%rdi
   1b1bc:	e8 df c0 ff ff       	call   172a0 <_ZStlsISt11char_traitsIcEERSt13basic_ostreamIcT_ES5_PKc@plt>
   1b1c1:	48 89 c3             	mov    %rax,%rbx
   1b1c4:	48 8d 85 c0 fe ff ff 	lea    -0x140(%rbp),%rax
   1b1cb:	48 8d 95 e0 fe ff ff 	lea    -0x120(%rbp),%rdx
   1b1d2:	48 89 d6             	mov    %rdx,%rsi
   1b1d5:	48 89 c7             	mov    %rax,%rdi
   1b1d8:	e8 9b 21 01 00       	call   2d378 <_ZNK5Offer14getJobLocationB5cxx11Ev>
   1b1dd:	48 8d 85 c0 fe ff ff 	lea    -0x140(%rbp),%rax
   1b1e4:	48 89 c6             	mov    %rax,%rsi
   1b1e7:	48 89 df             	mov    %rbx,%rdi
   1b1ea:	e8 91 c0 ff ff       	call   17280 <_ZStlsIcSt11char_traitsIcESaIcEERSt13basic_ostreamIT_T0_ES7_RKNSt7__cxx1112basic_stringIS4_S5_T1_EE@plt>
   1b1ef:	48 8b 15 c2 5d 02 00 	mov    0x25dc2(%rip),%rdx        # 40fb8 <_ZSt4endlIcSt11char_traitsIcEERSt13basic_ostreamIT_T0_ES6_@GLIBCXX_3.4>
   1b1f6:	48 89 d6             	mov    %rdx,%rsi
   1b1f9:	48 89 c7             	mov    %rax,%rdi
   1b1fc:	e8 df c0 ff ff       	call   172e0 <_ZNSolsEPFRSoS_E@plt>
   1b201:	48 8d 85 c0 fe ff ff 	lea    -0x140(%rbp),%rax
   1b208:	48 89 c7             	mov    %rax,%rdi
   1b20b:	e8 70 c3 ff ff       	call   17580 <_ZNSt7__cxx1112basic_stringIcSt11char_traitsIcESaIcEED1Ev@plt>
   1b210:	48 8d 85 a0 fe ff ff 	lea    -0x160(%rbp),%rax
   1b217:	48 89 c7             	mov    %rax,%rdi
   1b21a:	e8 61 c3 ff ff       	call   17580 <_ZNSt7__cxx1112basic_stringIcSt11char_traitsIcESaIcEED1Ev@plt>
   1b21f:	83 85 a4 fa ff ff 01 	addl   $0x1,-0x55c(%rbp)
   1b226:	48 8d 85 e0 fe ff ff 	lea    -0x120(%rbp),%rax
   1b22d:	48 89 c7             	mov    %rax,%rdi
   1b230:	e8 2d 48 00 00       	call   1fa62 <_ZN5OfferD1Ev>
   1b235:	48 8d 85 d0 fb ff ff 	lea    -0x430(%rbp),%rax
   1b23c:	48 89 c7             	mov    %rax,%rdi
   1b23f:	e8 22 54 00 00       	call   20666 <_ZN9__gnu_cxx17__normal_iteratorIP5OfferSt6vectorIS1_SaIS1_EEEppEv>
   1b244:	48 8d 95 f0 fb ff ff 	lea    -0x410(%rbp),%rdx
   1b24b:	48 8d 85 d0 fb ff ff 	lea    -0x430(%rbp),%rax
   1b252:	48 89 d6             	mov    %rdx,%rsi
   1b255:	48 89 c7             	mov    %rax,%rdi
   1b258:	e8 cd 53 00 00       	call   2062a <_ZN9__gnu_cxxneIP5OfferSt6vectorIS1_SaIS1_EEEEbRKNS_17__normal_iteratorIT_T0_EESB_>
   1b25d:	84 c0                	test   %al,%al
   1b25f:	0f 85 c9 fe ff ff    	jne    1b12e <main+0x1b1a>
   1b265:	48 8d 05 7e 91 01 00 	lea    0x1917e(%rip),%rax        # 343ea <_IO_stdin_used+0x3ea>
   1b26c:	48 89 c6             	mov    %rax,%rsi
   1b26f:	48 8d 05 8a 60 02 00 	lea    0x2608a(%rip),%rax        # 41300 <_ZSt4cout@@GLIBCXX_3.4>
   1b276:	48 89 c7             	mov    %rax,%rdi
   1b279:	e8 22 c0 ff ff       	call   172a0 <_ZStlsISt11char_traitsIcEERSt13basic_ostreamIcT_ES5_PKc@plt>
   1b27e:	48 8d 85 6c fa ff ff 	lea    -0x594(%rbp),%rax
   1b285:	48 89 c6             	mov    %rax,%rsi
   1b288:	48 8d 05 b1 61 02 00 	lea    0x261b1(%rip),%rax        # 41440 <_ZSt3cin@@GLIBCXX_3.4>
   1b28f:	48 89 c7             	mov    %rax,%rdi
   1b292:	e8 29 bf ff ff       	call   171c0 <_ZNSirsERi@plt>
   1b297:	48 8d 05 4a 93 01 00 	lea    0x1934a(%rip),%rax        # 345e8 <_IO_stdin_used+0x5e8>
   1b29e:	48 89 c6             	mov    %rax,%rsi
   1b2a1:	48 8d 05 58 60 02 00 	lea    0x26058(%rip),%rax        # 41300 <_ZSt4cout@@GLIBCXX_3.4>
   1b2a8:	48 89 c7             	mov    %rax,%rdi
   1b2ab:	e8 f0 bf ff ff       	call   172a0 <_ZStlsISt11char_traitsIcEERSt13basic_ostreamIcT_ES5_PKc@plt>
   1b2b0:	48 8b 15 01 5d 02 00 	mov    0x25d01(%rip),%rdx        # 40fb8 <_ZSt4endlIcSt11char_traitsIcEERSt13basic_ostreamIT_T0_ES6_@GLIBCXX_3.4>
   1b2b7:	48 89 d6             	mov    %rdx,%rsi
   1b2ba:	48 89 c7             	mov    %rax,%rdi
   1b2bd:	e8 1e c0 ff ff       	call   172e0 <_ZNSolsEPFRSoS_E@plt>
   1b2c2:	c7 85 a4 fa ff ff 00 	movl   $0x0,-0x55c(%rbp)
   1b2c9:	00 00 00 
   1b2cc:	48 8b 85 b0 fa ff ff 	mov    -0x550(%rbp),%rax
   1b2d3:	48 89 c7             	mov    %rax,%rdi
   1b2d6:	e8 d7 c2 00 00       	call   275b2 <_ZN7Company9getOffersEv>
   1b2db:	48 89 c2             	mov    %rax,%rdx
   1b2de:	8b 85 6c fa ff ff    	mov    -0x594(%rbp),%eax
   1b2e4:	48 98                	cltq   
   1b2e6:	48 89 c6             	mov    %rax,%rsi
   1b2e9:	48 89 d7             	mov    %rdx,%rdi
   1b2ec:	e8 47 4e 00 00       	call   20138 <_ZNSt6vectorI5OfferSaIS0_EE2atEm>
   1b2f1:	48 89 c7             	mov    %rax,%rdi
   1b2f4:	e8 2d 20 01 00       	call   2d326 <_ZN5Offer10getCollegeEv>
   1b2f9:	48 89 85 80 fb ff ff 	mov    %rax,-0x480(%rbp)
   1b300:	48 8b 85 80 fb ff ff 	mov    -0x480(%rbp),%rax
   1b307:	48 89 c7             	mov    %rax,%rdi
   1b30a:	e8 8d 53 00 00       	call   2069c <_ZNSt6vectorI7CollegeSaIS0_EE5beginEv>
   1b30f:	48 89 85 d0 fb ff ff 	mov    %rax,-0x430(%rbp)
   1b316:	48 8b 85 80 fb ff ff 	mov    -0x480(%rbp),%rax
   1b31d:	48 89 c7             	mov    %rax,%rdi
   1b320:	e8 bf 53 00 00       	call   206e4 <_ZNSt6vectorI7CollegeSaIS0_EE3endEv>
   1b325:	48 89 85 f0 fb ff ff 	mov    %rax,-0x410(%rbp)
   1b32c:	e9 f5 00 00 00       	jmp    1b426 <main+0x1e12>
   1b331:	48 8d 85 d0 fb ff ff 	lea    -0x430(%rbp),%rax
   1b338:	48 89 c7             	mov    %rax,%rdi
   1b33b:	e8 50 54 00 00       	call   20790 <_ZNK9__gnu_cxx17__normal_iteratorIP7CollegeSt6vectorIS1_SaIS1_EEEdeEv>
   1b340:	48 89 c2             	mov    %rax,%rdx
   1b343:	48 8d 85 e0 fe ff ff 	lea    -0x120(%rbp),%rax
   1b34a:	48 89 d6             	mov    %rdx,%rsi
   1b34d:	48 89 c7             	mov    %rax,%rdi
   1b350:	e8 73 48 00 00       	call   1fbc8 <_ZN7CollegeC1ERKS_>
   1b355:	8b 85 a4 fa ff ff    	mov    -0x55c(%rbp),%eax
   1b35b:	89 c6                	mov    %eax,%esi
   1b35d:	48 8d 05 9c 5f 02 00 	lea    0x25f9c(%rip),%rax        # 41300 <_ZSt4cout@@GLIBCXX_3.4>
   1b364:	48 89 c7             	mov    %rax,%rdi
   1b367:	e8 74 c1 ff ff       	call   174e0 <_ZNSolsEi@plt>
   1b36c:	48 89 c2             	mov    %rax,%rdx
   1b36f:	48 8d 05 fc 8f 01 00 	lea    0x18ffc(%rip),%rax        # 34372 <_IO_stdin_used+0x372>
   1b376:	48 89 c6             	mov    %rax,%rsi
   1b379:	48 89 d7             	mov    %rdx,%rdi
   1b37c:	e8 1f bf ff ff       	call   172a0 <_ZStlsISt11char_traitsIcEERSt13basic_ostreamIcT_ES5_PKc@plt>
   1b381:	48 89 c3             	mov    %rax,%rbx
   1b384:	48 8d 85 c0 fe ff ff 	lea    -0x140(%rbp),%rax
   1b38b:	48 8d 95 e0 fe ff ff 	lea    -0x120(%rbp),%rdx
   1b392:	48 89 d6             	mov    %rdx,%rsi
   1b395:	48 89 c7             	mov    %rax,%rdi
   1b398:	e8 21 7e 00 00       	call   231be <_ZNK7College7getNameB5cxx11Ev>
   1b39d:	48 8d 85 c0 fe ff ff 	lea    -0x140(%rbp),%rax
   1b3a4:	48 89 c6             	mov    %rax,%rsi
   1b3a7:	48 89 df             	mov    %rbx,%rdi
   1b3aa:	e8 d1 be ff ff       	call   17280 <_ZStlsIcSt11char_traitsIcESaIcEERSt13basic_ostreamIT_T0_ES7_RKNSt7__cxx1112basic_stringIS4_S5_T1_EE@plt>
   1b3af:	48 89 c2             	mov    %rax,%rdx
   1b3b2:	48 8d 05 b9 8f 01 00 	lea    0x18fb9(%rip),%rax        # 34372 <_IO_stdin_used+0x372>
   1b3b9:	48 89 c6             	mov    %rax,%rsi
   1b3bc:	48 89 d7             	mov    %rdx,%rdi
   1b3bf:	e8 dc be ff ff       	call   172a0 <_ZStlsISt11char_traitsIcEERSt13basic_ostreamIcT_ES5_PKc@plt>
   1b3c4:	48 89 c3             	mov    %rax,%rbx
   1b3c7:	48 8d 85 e0 fe ff ff 	lea    -0x120(%rbp),%rax
   1b3ce:	48 89 c7             	mov    %rax,%rdi
   1b3d1:	e8 16 7e 00 00       	call   231ec <_ZNK7College14getCollegeCodeEv>
   1b3d6:	89 c6                	mov    %eax,%esi
   1b3d8:	48 89 df             	mov    %rbx,%rdi
   1b3db:	e8 00 c1 ff ff       	call   174e0 <_ZNSolsEi@plt>
   1b3e0:	48 8b 15 d1 5b 02 00 	mov    0x25bd1(%rip),%rdx        # 40fb8 <_ZSt4endlIcSt11char_traitsIcEERSt13basic_ostreamIT_T0_ES6_@GLIBCXX_3.4>
   1b3e7:	48 89 d6             	mov    %rdx,%rsi
   1b3ea:	48 89 c7             	mov    %rax,%rdi
   1b3ed:	e8 ee be ff ff       	call   172e0 <_ZNSolsEPFRSoS_E@plt>
   1b3f2:	48 8d 85 c0 fe ff ff 	lea    -0x140(%rbp),%rax
   1b3f9:	48 89 c7             	mov    %rax,%rdi
   1b3fc:	e8 7f c1 ff ff       	call   17580 <_ZNSt7__cxx1112basic_stringIcSt11char_traitsIcESaIcEED1Ev@plt>
   1b401:	83 85 a4 fa ff ff 01 	addl   $0x1,-0x55c(%rbp)
   1b408:	48 8d 85 e0 fe ff ff 	lea    -0x120(%rbp),%rax
   1b40f:	48 89 c7             	mov    %rax,%rdi
   1b412:	e8 f1 46 00 00       	call   1fb08 <_ZN7CollegeD1Ev>
   1b417:	48 8d 85 d0 fb ff ff 	lea    -0x430(%rbp),%rax
   1b41e:	48 89 c7             	mov    %rax,%rdi
   1b421:	e8 46 53 00 00       	call   2076c <_ZN9__gnu_cxx17__normal_iteratorIP7CollegeSt6vectorIS1_SaIS1_EEEppEv>
   1b426:	48 8d 95 f0 fb ff ff 	lea    -0x410(%rbp),%rdx
   1b42d:	48 8d 85 d0 fb ff ff 	lea    -0x430(%rbp),%rax
   1b434:	48 89 d6             	mov    %rdx,%rsi
   1b437:	48 89 c7             	mov    %rax,%rdi
   1b43a:	e8 f1 52 00 00       	call   20730 <_ZN9__gnu_cxxneIP7CollegeSt6vectorIS1_SaIS1_EEEEbRKNS_17__normal_iteratorIT_T0_EESB_>
   1b43f:	84 c0                	test   %al,%al
   1b441:	0f 85 ea fe ff ff    	jne    1b331 <main+0x1d1d>
   1b447:	48 8d 05 e9 91 01 00 	lea    0x191e9(%rip),%rax        # 34637 <_IO_stdin_used+0x637>
   1b44e:	48 89 c6             	mov    %rax,%rsi
   1b451:	48 8d 05 a8 5e 02 00 	lea    0x25ea8(%rip),%rax        # 41300 <_ZSt4cout@@GLIBCXX_3.4>
   1b458:	48 89 c7             	mov    %rax,%rdi
   1b45b:	e8 40 be ff ff       	call   172a0 <_ZStlsISt11char_traitsIcEERSt13basic_ostreamIcT_ES5_PKc@plt>
   1b460:	48 8d 85 74 fa ff ff 	lea    -0x58c(%rbp),%rax
   1b467:	48 89 c6             	mov    %rax,%rsi
